
TFT_TEST.elf:     file format elf32-littlenios2
TFT_TEST.elf
architecture: nios2, flags 0x00000112:
EXEC_P, HAS_SYMS, D_PAGED
start address 0x000001b4

Program Header:
    LOAD off    0x00001020 vaddr 0x00000020 paddr 0x00000020 align 2**12
         filesz 0x0009e35c memsz 0x0009e60c flags rwx
    LOAD off    0x000a0000 vaddr 0x01081000 paddr 0x01081000 align 2**12
         filesz 0x00000000 memsz 0x00000000 flags r-x

Sections:
Idx Name          Size      VMA       LMA       File off  Algn
  0 .entry        00000000  01081000  01081000  000a0000  2**5
                  CONTENTS, ALLOC, LOAD, READONLY, CODE
  1 .exceptions   00000194  00000020  00000020  00001020  2**2
                  CONTENTS, ALLOC, LOAD, READONLY, CODE
  2 .text         000062bc  000001b4  000001b4  000011b4  2**2
                  CONTENTS, ALLOC, LOAD, READONLY, CODE
  3 .rodata       0009778c  00006470  00006470  00007470  2**2
                  CONTENTS, ALLOC, LOAD, READONLY, DATA
  4 .rwdata       00000780  0009dbfc  0009dbfc  0009ebfc  2**2
                  CONTENTS, ALLOC, LOAD, DATA, SMALL_DATA
  5 .bss          000002b0  0009e37c  0009e37c  0009f37c  2**2
                  ALLOC, SMALL_DATA
  6 .comment      00000023  00000000  00000000  000a0000  2**0
                  CONTENTS, READONLY
  7 .debug_aranges 00000690  00000000  00000000  000a0028  2**3
                  CONTENTS, READONLY, DEBUGGING
  8 .debug_pubnames 00000ca6  00000000  00000000  000a06b8  2**0
                  CONTENTS, READONLY, DEBUGGING
  9 .debug_info   0000d974  00000000  00000000  000a135e  2**0
                  CONTENTS, READONLY, DEBUGGING
 10 .debug_abbrev 00003759  00000000  00000000  000aecd2  2**0
                  CONTENTS, READONLY, DEBUGGING
 11 .debug_line   00008610  00000000  00000000  000b242b  2**0
                  CONTENTS, READONLY, DEBUGGING
 12 .debug_frame  00000f34  00000000  00000000  000baa3c  2**2
                  CONTENTS, READONLY, DEBUGGING
 13 .debug_str    00000e8d  00000000  00000000  000bb970  2**0
                  CONTENTS, READONLY, DEBUGGING
 14 .debug_loc    00001e52  00000000  00000000  000bc7fd  2**0
                  CONTENTS, READONLY, DEBUGGING
 15 .debug_alt_sim_info 00000020  00000000  00000000  000be650  2**2
                  CONTENTS, READONLY, DEBUGGING
 16 .debug_ranges 000001c0  00000000  00000000  000be670  2**3
                  CONTENTS, READONLY, DEBUGGING
 17 .thread_model 00000003  00000000  00000000  000c0978  2**0
                  CONTENTS, READONLY
 18 .cpu          00000005  00000000  00000000  000c097b  2**0
                  CONTENTS, READONLY
 19 .qsys         00000001  00000000  00000000  000c0980  2**0
                  CONTENTS, READONLY
 20 .simulation_enabled 00000001  00000000  00000000  000c0981  2**0
                  CONTENTS, READONLY
 21 .stderr_dev   00000006  00000000  00000000  000c0982  2**0
                  CONTENTS, READONLY
 22 .stdin_dev    00000006  00000000  00000000  000c0988  2**0
                  CONTENTS, READONLY
 23 .stdout_dev   00000006  00000000  00000000  000c098e  2**0
                  CONTENTS, READONLY
 24 .sopc_system_name 00000008  00000000  00000000  000c0994  2**0
                  CONTENTS, READONLY
 25 .quartus_project_dir 00000039  00000000  00000000  000c099c  2**0
                  CONTENTS, READONLY
 26 .sopcinfo     0006e2f6  00000000  00000000  000c09d5  2**0
                  CONTENTS, READONLY
SYMBOL TABLE:
01081000 l    d  .entry	00000000 .entry
00000020 l    d  .exceptions	00000000 .exceptions
000001b4 l    d  .text	00000000 .text
00006470 l    d  .rodata	00000000 .rodata
0009dbfc l    d  .rwdata	00000000 .rwdata
0009e37c l    d  .bss	00000000 .bss
00000000 l    d  .comment	00000000 .comment
00000000 l    d  .debug_aranges	00000000 .debug_aranges
00000000 l    d  .debug_pubnames	00000000 .debug_pubnames
00000000 l    d  .debug_info	00000000 .debug_info
00000000 l    d  .debug_abbrev	00000000 .debug_abbrev
00000000 l    d  .debug_line	00000000 .debug_line
00000000 l    d  .debug_frame	00000000 .debug_frame
00000000 l    d  .debug_str	00000000 .debug_str
00000000 l    d  .debug_loc	00000000 .debug_loc
00000000 l    d  .debug_alt_sim_info	00000000 .debug_alt_sim_info
00000000 l    d  .debug_ranges	00000000 .debug_ranges
000001f8 l       .text	00000000 alt_after_alt_main
00000000 l    df *ABS*	00000000 alt_irq_handler.c
00000000 l    df *ABS*	00000000 TFT_API.c
00000000 l    df *ABS*	00000000 hello_world.c
00000000 l    df *ABS*	00000000 fp-bit.c
000026f4 l     F .text	000001e4 _fpadd_parts
00000000 l    df *ABS*	00000000 fp-bit.c
00000000 l    df *ABS*	00000000 fp-bit.c
00000000 l    df *ABS*	00000000 fp-bit.c
00000000 l    df *ABS*	00000000 fp-bit.c
00000000 l    df *ABS*	00000000 fp-bit.c
00000000 l    df *ABS*	00000000 dp-bit.c
00000000 l    df *ABS*	00000000 lib2-divmod.c
00002da4 l     F .text	0000007c udivmodsi4
00000000 l    df *ABS*	00000000 libgcc2.c
00000000 l    df *ABS*	00000000 libgcc2.c
00000000 l    df *ABS*	00000000 fp-bit.c
00000000 l    df *ABS*	00000000 fp-bit.c
00000000 l    df *ABS*	00000000 fp-bit.c
00000000 l    df *ABS*	00000000 fp-bit.c
00000000 l    df *ABS*	00000000 dp-bit.c
00000000 l    df *ABS*	00000000 libgcc2.c
00000000 l    df *ABS*	00000000 alt_main.c
00000000 l    df *ABS*	00000000 alt_sys_init.c
0009dc18 l     O .rwdata	000000c8 epcs
0009dce0 l     O .rwdata	000000c4 uart_0
0000352c l     F .text	00000038 alt_dev_reg
00000000 l    df *ABS*	00000000 altera_avalon_epcs_flash_controller.c
000035f0 l     F .text	00000288 alt_epcs_flash_query
000035b8 l     F .text	00000038 alt_flash_device_register
00003878 l     F .text	00000108 alt_epcs_flash_memcmp
00003d00 l     F .text	00000094 alt_epcs_test_address
00000000 l    df *ABS*	00000000 altera_avalon_uart_fd.c
00000000 l    df *ABS*	00000000 altera_avalon_uart_init.c
00004108 l     F .text	0000009c altera_avalon_uart_irq
000041a4 l     F .text	000000e0 altera_avalon_uart_rxirq
00004284 l     F .text	0000015c altera_avalon_uart_txirq
00000000 l    df *ABS*	00000000 altera_avalon_uart_read.c
00004670 l     F .text	00000060 alt_get_errno
00000000 l    df *ABS*	00000000 altera_avalon_uart_write.c
00004898 l     F .text	00000060 alt_get_errno
00000000 l    df *ABS*	00000000 epcs_commands.c
00004a50 l     F .text	00000038 epcs_await_wip_released
00004a88 l     F .text	00000038 epcs_test_wip
00000000 l    df *ABS*	00000000 alt_close.c
000050c8 l     F .text	00000060 alt_get_errno
00000000 l    df *ABS*	00000000 alt_dev.c
00005128 l     F .text	0000002c alt_dev_null_write
00000000 l    df *ABS*	00000000 alt_dev_llist_insert.c
00005208 l     F .text	00000060 alt_get_errno
00000000 l    df *ABS*	00000000 alt_do_ctors.c
00000000 l    df *ABS*	00000000 alt_do_dtors.c
00000000 l    df *ABS*	00000000 alt_errno.c
00000000 l    df *ABS*	00000000 alt_flash_dev.c
00000000 l    df *ABS*	00000000 alt_iic.c
00000000 l    df *ABS*	00000000 alt_iic_isr_register.c
00000000 l    df *ABS*	00000000 alt_io_redirect.c
000056cc l     F .text	000000c4 alt_open_fd
00000000 l    df *ABS*	00000000 alt_irq_vars.c
00000000 l    df *ABS*	00000000 alt_open.c
00005808 l     F .text	000000dc alt_file_locked
00005a6c l     F .text	00000060 alt_get_errno
00000000 l    df *ABS*	00000000 alt_release_fd.c
00000000 l    df *ABS*	00000000 altera_nios2_qsys_irq.c
00000000 l    df *ABS*	00000000 altera_avalon_spi.c
00000000 l    df *ABS*	00000000 alt_find_dev.c
00000000 l    df *ABS*	00000000 alt_find_file.c
00000000 l    df *ABS*	00000000 alt_get_fd.c
00000000 l    df *ABS*	00000000 atexit.c
00000000 l    df *ABS*	00000000 exit.c
00000000 l    df *ABS*	00000000 impure.c
0009df4c l     O .rwdata	00000400 impure_data
00000000 l    df *ABS*	00000000 int_errno.c
00000000 l    df *ABS*	00000000 memcmp.c
00000000 l    df *ABS*	00000000 strlen.c
00000000 l    df *ABS*	00000000 __atexit.c
00000000 l    df *ABS*	00000000 __call_atexit.c
00006258 l     F .text	00000004 register_fini
00000000 l    df *ABS*	00000000 alt_exit.c
0000640c l     F .text	00000040 alt_sim_halt
00003c00 g     F .text	00000090 alt_epcs_flash_get_info
00000b70 g     F .text	000002ac LCD_ShowChar
000002b8 g     F .text	000000ac LCD_DrawPoint
0000343c g     F .text	0000006c alt_main
0009e39c g     O .bss	00000100 alt_irq
0009e34c g     O .rwdata	00000002 BACK_COLOR
00002c9c g     F .text	00000094 __fixsfsi
0009dbfc g     O .rwdata	00000010 lcd_printf
00006470 g     O .rodata	00000474 asc2_1206
00000000  w      *UND*	00000000 __errno
00004958 g     F .text	000000f8 epcs_sector_erase
01081000 g     F .entry	00000000 __reset
00000364 g     F .text	00000090 LCD_Clear
0009e398 g     O .bss	00000004 errno
000032d8 g     F .text	0000002c __make_fp
0009e37c g     O .bss	00000002 POINT_COLOR
0009e38c g     O .bss	00000004 alt_argv
000a634c g       *ABS*	00000000 _gp
000028d8 g     F .text	00000070 __subsf3
000016a4 g     F .text	000000c8 Get_NumLen
0009ddcc g     O .rwdata	00000180 alt_fd_list
00004c5c g     F .text	00000064 epcs_write_status_register
00005d84 g     F .text	00000094 alt_find_dev
00000e1c g     F .text	0000005c mypow
00005790 g     F .text	00000078 alt_io_redirect
00006470 g       *ABS*	00000000 __DTOR_END__
00003d94 g     F .text	0000011c alt_epcs_flash_write_block
00001a74 g     F .text	00000160 _printfflt
0000051c g     F .text	0000022c LCD_DrawLine
00000000  w      *UND*	00000000 malloc
00002ee0 g     F .text	00000008 __udivsi3
0009dc0c g     O .rwdata	0000000a data_tx
000001fc g     F .text	00000088 LCD_Dir
0009e360 g     O .rwdata	00000004 alt_max_fd
00003304 g     F .text	00000138 __unpack_d
00003c90 g     F .text	00000070 alt_epcs_flash_erase_block
0009e378 g     O .rwdata	00000004 _global_impure_ptr
00004f74 g     F .text	00000058 epcs_exit_4_bytes_mode
0009e62c g       *ABS*	00000000 __bss_end
000055d4 g     F .text	000000f8 alt_iic_isr_register
00004040 g     F .text	000000c8 altera_avalon_uart_init
0000558c g     F .text	00000048 alt_ic_irq_enabled
0009e394 g     O .bss	00000004 alt_irq_active
000000ec g     F .exceptions	000000c8 alt_irq_handler
0009dda4 g     O .rwdata	00000028 alt_dev_null
00003168 g     F .text	000000c8 __unpack_f
0009e358 g     O .rwdata	00000008 alt_dev_list
00002ee8 g     F .text	00000008 __umodsi3
000018ec g     F .text	000000f4 _printfstr
00004e30 g     F .text	0000006c epcs_read_electronic_signature
0009e62c g       *ABS*	00000000 end
00003008 g     F .text	00000160 __pack_f
000046d0 g     F .text	000001c8 altera_avalon_uart_write
0000646c g       *ABS*	00000000 __CTOR_LIST__
01000000 g       *ABS*	00000000 __alt_stack_pointer
00003fa0 g     F .text	00000058 altera_avalon_uart_write_fd
00002f88 g     F .text	00000080 __clzsi2
00003ff8 g     F .text	00000048 altera_avalon_uart_close_fd
0000625c g     F .text	000001b0 __call_exitprocs
000001b4 g     F .text	00000048 _start
00001108 g     F .text	00000210 LCD_ShowChinese
00005b4c g     F .text	00000238 alt_avalon_spi_command
000034dc g     F .text	00000050 alt_sys_init
00002c04 g     F .text	00000098 __floatsisf
00006124 g     F .text	00000134 __register_exitproc
000048f8 g     F .text	00000060 epcs_read_status_register
00005f38 g     F .text	000000b8 alt_get_fd
00004e9c g     F .text	00000080 epcs_read_device_id
0000603c g     F .text	00000074 memcmp
0009e62c g       *ABS*	00000000 __alt_stack_base
0009dab8 g     O .rodata	00000010 __thenan_sf
00005e18 g     F .text	00000120 alt_find_file
00005154 g     F .text	000000b4 alt_dev_llist_insert
00000e78 g     F .text	00000160 LCD_ShowNum
0009e368 g     O .rwdata	00000008 alt_flash_dev_list
0009e37c g       *ABS*	00000000 __bss_start
00000284 g     F .text	00000034 LCD_Init
00002534 g     F .text	000001c0 main
0009e390 g     O .bss	00000004 alt_envp
000068e4 g     O .rodata	000005f0 asc2_1608
00002b8c g     F .text	00000078 __ltsf2
00002d30 g     F .text	00000074 __truncdfsf2
0009e49c g     O .bss	00000190 _atexit0
0009e364 g     O .rwdata	00000004 alt_errno
00002e20 g     F .text	00000060 __divsi3
00001318 g     F .text	0000024c LCD_MoveChinese
00006470 g       *ABS*	00000000 __CTOR_END__
000029ac g     F .text	000001e0 __mulsf3
00003980 g     F .text	00000280 alt_epcs_flash_write
00006470 g       *ABS*	00000000 __DTOR_LIST__
000015c0 g     F .text	000000e4 Array_To_String
000003f4 g     F .text	00000128 LCD_Fill
000034a8 g     F .text	00000034 alt_irq_init
00005acc g     F .text	00000060 alt_release_fd
00007ab8 g     O .rodata	00096000 gImage_liuyifei
0009dac8 g     O .rodata	00000100 __clz_tab
0009e380 g     O .bss	00000008 lcddev
00005ff0 g     F .text	00000014 atexit
0009e374 g     O .rwdata	00000004 _impure_ptr
0009e388 g     O .bss	00000004 alt_argc
000052cc g     F .text	00000064 _do_dtors
00000020 g       .exceptions	00000000 alt_irq_entry
00000840 g     F .text	00000330 Draw_Circle
0009e350 g     O .rwdata	00000008 alt_fs_list
00006ee8 g     O .rodata	00000708 Chinese36
00004ac0 g     F .text	0000014c epcs_read_buffer
00003564 g     F .text	00000054 alt_epcs_flash_init
00005400 g     F .text	00000050 alt_ic_isr_register
0009e37c g       *ABS*	00000000 _edata
00003f48 g     F .text	00000058 altera_avalon_uart_read_fd
0009e62c g       *ABS*	00000000 _end
00005330 g     F .text	0000007c alt_flash_open_dev
00001dd4 g     F .text	00000760 LCD_printf
000054ec g     F .text	000000a0 alt_ic_irq_disable
00004f1c g     F .text	00000058 epcs_enter_4_bytes_mode
00005b2c g     F .text	00000020 altera_nios2_qsys_irq_init
00006004 g     F .text	00000038 exit
000053ac g     F .text	00000054 alt_flash_close_dev
00002e80 g     F .text	00000060 __modsi3
01000000 g       *ABS*	00000000 __alt_data_end
00000020 g     F .exceptions	00000000 alt_exception
000075f0 g     O .rodata	000004c8 Chinese24
00000000 g       *ABS*	00000000 __alt_mem_sdram
000043e0 g     F .text	00000060 altera_avalon_uart_close
00003230 g     F .text	000000a8 __fpcmp_parts_f
00000fd8 g     F .text	00000130 LCD_ShowString
0000644c g     F .text	00000020 _exit
00002ef0 g     F .text	00000098 __muldi3
000060b0 g     F .text	00000074 strlen
00004c0c g     F .text	00000050 epcs_write_enable
00001bd4 g     F .text	00000200 _printfhex
000058e4 g     F .text	00000188 open
0009e370 g     O .rwdata	00000004 alt_priority_mask
00001564 g     F .text	0000005c Equation_Calculate
00005450 g     F .text	0000009c alt_ic_irq_enable
01081000 g       *ABS*	00000000 __alt_mem_epcs
00004440 g     F .text	00000230 altera_avalon_uart_read
000019e0 g     F .text	00000094 _printfint
0000176c g     F .text	00000180 _printfch
00003eb0 g     F .text	00000098 alt_epcs_flash_read
00005268 g     F .text	00000064 _do_ctors
00004fcc g     F .text	000000fc close
00002948 g     F .text	00000064 __addsf3
00000748 g     F .text	000000f8 LCD_DrawRectangle
00000000  w      *UND*	00000000 free
00004cc0 g     F .text	00000170 epcs_write_buffer



Disassembly of section .exceptions:

00000020 <alt_exception>:
         * Process an exception.  For all exceptions we must preserve all
         * caller saved registers on the stack (See the Nios2 ABI
         * documentation for details).
         */

        addi  sp, sp, -76
  20:	deffed04 	addi	sp,sp,-76

#endif

#endif

        stw   ra,  0(sp)
  24:	dfc00015 	stw	ra,0(sp)
        /*
         * Leave a gap in the stack frame at 4(sp) for the muldiv handler to
         * store zero into.
         */

        stw   r1,   8(sp)
  28:	d8400215 	stw	at,8(sp)
        stw   r2,  12(sp)
  2c:	d8800315 	stw	r2,12(sp)
        stw   r3,  16(sp)
  30:	d8c00415 	stw	r3,16(sp)
        stw   r4,  20(sp)
  34:	d9000515 	stw	r4,20(sp)
        stw   r5,  24(sp)
  38:	d9400615 	stw	r5,24(sp)
        stw   r6,  28(sp)
  3c:	d9800715 	stw	r6,28(sp)
        stw   r7,  32(sp)
  40:	d9c00815 	stw	r7,32(sp)

        rdctl r5, estatus
  44:	000b307a 	rdctl	r5,estatus

        stw   r8,  36(sp)
  48:	da000915 	stw	r8,36(sp)
        stw   r9,  40(sp)
  4c:	da400a15 	stw	r9,40(sp)
        stw   r10, 44(sp)
  50:	da800b15 	stw	r10,44(sp)
        stw   r11, 48(sp)
  54:	dac00c15 	stw	r11,48(sp)
        stw   r12, 52(sp)
  58:	db000d15 	stw	r12,52(sp)
        stw   r13, 56(sp)
  5c:	db400e15 	stw	r13,56(sp)
        stw   r14, 60(sp)
  60:	db800f15 	stw	r14,60(sp)
        stw   r15, 64(sp)
  64:	dbc01015 	stw	r15,64(sp)
        /*
         * ea-4 contains the address of the instruction being executed
         * when the exception occured. For interrupt exceptions, we will
         * will be re-issue the isntruction. Store it in 72(sp)
         */
        stw   r5,  68(sp)  /* estatus */
  68:	d9401115 	stw	r5,68(sp)
        addi  r15, ea, -4  /* instruction that caused exception */
  6c:	ebffff04 	addi	r15,ea,-4
        stw   r15,  72(sp)
  70:	dbc01215 	stw	r15,72(sp)
#else
        /*
         * Test to see if the exception was a software exception or caused 
         * by an external interrupt, and vector accordingly.
         */
        rdctl r4, ipending
  74:	0009313a 	rdctl	r4,ipending
        andi  r2, r5, 1
  78:	2880004c 	andi	r2,r5,1
        beq   r2, zero, .Lnot_irq
  7c:	10000326 	beq	r2,zero,8c <alt_exception+0x6c>
        beq   r4, zero, .Lnot_irq
  80:	20000226 	beq	r4,zero,8c <alt_exception+0x6c>
        /*
         * Now that all necessary registers have been preserved, call 
         * alt_irq_handler() to process the interrupts.
         */

        call alt_irq_handler
  84:	00000ec0 	call	ec <alt_irq_handler>

        .section .exceptions.irqreturn, "xa"

        br    .Lexception_exit
  88:	00000306 	br	98 <alt_exception+0x78>
         * upon completion, so we write ea (address of instruction *after*
         * the one where the exception occured) into 72(sp). The actual
         * instruction that caused the exception is written in r2, which these
         * handlers will utilize.
         */
        stw   ea,  72(sp)  /* Don't re-issue */
  8c:	df401215 	stw	ea,72(sp)
        ldw   r2, -4(ea)   /* Instruction that caused exception */
  90:	e8bfff17 	ldw	r2,-4(ea)
#ifdef NIOS2_HAS_DEBUG_STUB
       /*
        *  Either tell the user now (if there is a debugger attached) or go into
        *  the debug monitor which will loop until a debugger is attached.
        */
        break
  94:	003da03a 	break	0
        /* 
         * Restore the saved registers, so that all general purpose registers 
         * have been restored to their state at the time the interrupt occured.
         */

        ldw   r5,  68(sp)
  98:	d9401117 	ldw	r5,68(sp)
        ldw   ea,  72(sp)  /* This becomes the PC once eret is executed */
  9c:	df401217 	ldw	ea,72(sp)
        ldw   ra,   0(sp)
  a0:	dfc00017 	ldw	ra,0(sp)

        wrctl estatus, r5
  a4:	2801707a 	wrctl	estatus,r5

        ldw   r1,   8(sp)
  a8:	d8400217 	ldw	at,8(sp)
        ldw   r2,  12(sp)
  ac:	d8800317 	ldw	r2,12(sp)
        ldw   r3,  16(sp)
  b0:	d8c00417 	ldw	r3,16(sp)
        ldw   r4,  20(sp)
  b4:	d9000517 	ldw	r4,20(sp)
        ldw   r5,  24(sp)
  b8:	d9400617 	ldw	r5,24(sp)
        ldw   r6,  28(sp)
  bc:	d9800717 	ldw	r6,28(sp)
        ldw   r7,  32(sp)
  c0:	d9c00817 	ldw	r7,32(sp)
#ifdef ALT_STACK_CHECK
        ldw   et, %gprel(alt_exception_old_stack_limit)(gp)
#endif
#endif

        ldw   r8,  36(sp)
  c4:	da000917 	ldw	r8,36(sp)
        ldw   r9,  40(sp)
  c8:	da400a17 	ldw	r9,40(sp)
        ldw   r10, 44(sp)
  cc:	da800b17 	ldw	r10,44(sp)
        ldw   r11, 48(sp)
  d0:	dac00c17 	ldw	r11,48(sp)
        ldw   r12, 52(sp)
  d4:	db000d17 	ldw	r12,52(sp)
        ldw   r13, 56(sp)
  d8:	db400e17 	ldw	r13,56(sp)
        ldw   r14, 60(sp)
  dc:	db800f17 	ldw	r14,60(sp)
        ldw   r15, 64(sp)
  e0:	dbc01017 	ldw	r15,64(sp)
#endif

        ldw   sp,  76(sp)

#else
        addi  sp, sp, 76
  e4:	dec01304 	addi	sp,sp,76

        /*
         * Return to the interrupted instruction.
         */

        eret
  e8:	ef80083a 	eret

000000ec <alt_irq_handler>:
 * instruction is present if the macro ALT_CI_INTERRUPT_VECTOR defined.
 */

void alt_irq_handler (void) __attribute__ ((section (".exceptions")));
void alt_irq_handler (void)
{
  ec:	defff904 	addi	sp,sp,-28
  f0:	dfc00615 	stw	ra,24(sp)
  f4:	df000515 	stw	fp,20(sp)
  f8:	df000504 	addi	fp,sp,20
#ifndef NIOS2_EIC_PRESENT
static ALT_INLINE alt_u32 ALT_ALWAYS_INLINE alt_irq_pending (void)
{
  alt_u32 active;

  NIOS2_READ_IPENDING (active);
  fc:	0005313a 	rdctl	r2,ipending
 100:	e0bffc15 	stw	r2,-16(fp)

  return active;
 104:	e0bffc17 	ldw	r2,-16(fp)
   * Consider the case where the high priority interupt is asserted during
   * the interrupt entry sequence for a lower priority interrupt to see why
   * this is the case.
   */

  active = alt_irq_pending ();
 108:	e0bfff15 	stw	r2,-4(fp)

  do
  {
    i = 0;
 10c:	e03ffd15 	stw	zero,-12(fp)
    mask = 1;
 110:	00800044 	movi	r2,1
 114:	e0bffe15 	stw	r2,-8(fp)
     * called to clear the interrupt condition.
     */

    do
    {
      if (active & mask)
 118:	e0ffff17 	ldw	r3,-4(fp)
 11c:	e0bffe17 	ldw	r2,-8(fp)
 120:	1884703a 	and	r2,r3,r2
 124:	1005003a 	cmpeq	r2,r2,zero
 128:	1000161e 	bne	r2,zero,184 <alt_irq_handler+0x98>
      { 
#ifdef ALT_ENHANCED_INTERRUPT_API_PRESENT
        alt_irq[i].handler(alt_irq[i].context); 
 12c:	e0bffd17 	ldw	r2,-12(fp)
 130:	00c002b4 	movhi	r3,10
 134:	18f8e704 	addi	r3,r3,-7268
 138:	100490fa 	slli	r2,r2,3
 13c:	10c5883a 	add	r2,r2,r3
 140:	11400017 	ldw	r5,0(r2)
 144:	e0bffd17 	ldw	r2,-12(fp)
 148:	00c002b4 	movhi	r3,10
 14c:	18f8e704 	addi	r3,r3,-7268
 150:	100490fa 	slli	r2,r2,3
 154:	10c5883a 	add	r2,r2,r3
 158:	10800104 	addi	r2,r2,4
 15c:	11000017 	ldw	r4,0(r2)
 160:	283ee83a 	callr	r5
#ifndef NIOS2_EIC_PRESENT
static ALT_INLINE alt_u32 ALT_ALWAYS_INLINE alt_irq_pending (void)
{
  alt_u32 active;

  NIOS2_READ_IPENDING (active);
 164:	0005313a 	rdctl	r2,ipending
 168:	e0bffb15 	stw	r2,-20(fp)

  return active;
 16c:	e0bffb17 	ldw	r2,-20(fp)
      mask <<= 1;
      i++;

    } while (1);

    active = alt_irq_pending ();
 170:	e0bfff15 	stw	r2,-4(fp)
    
  } while (active);
 174:	e0bfff17 	ldw	r2,-4(fp)
 178:	1004c03a 	cmpne	r2,r2,zero
 17c:	103fe31e 	bne	r2,zero,10c <alt_irq_handler+0x20>
 180:	00000706 	br	1a0 <alt_irq_handler+0xb4>
#else
        alt_irq[i].handler(alt_irq[i].context, i); 
#endif
        break;
      }
      mask <<= 1;
 184:	e0bffe17 	ldw	r2,-8(fp)
 188:	1085883a 	add	r2,r2,r2
 18c:	e0bffe15 	stw	r2,-8(fp)
      i++;
 190:	e0bffd17 	ldw	r2,-12(fp)
 194:	10800044 	addi	r2,r2,1
 198:	e0bffd15 	stw	r2,-12(fp)

    } while (1);
 19c:	003fde06 	br	118 <alt_irq_handler+0x2c>
  /*
   * Notify the operating system that interrupt processing is complete.
   */ 

  ALT_OS_INT_EXIT();
}
 1a0:	e037883a 	mov	sp,fp
 1a4:	dfc00117 	ldw	ra,4(sp)
 1a8:	df000017 	ldw	fp,0(sp)
 1ac:	dec00204 	addi	sp,sp,8
 1b0:	f800283a 	ret

Disassembly of section .text:

000001b4 <_start>:

    /* Assume the data cache size is always a power of two. */
#if NIOS2_DCACHE_SIZE > 0x8000
    movhi r2, %hi(NIOS2_DCACHE_SIZE)
#else
    movui r2, NIOS2_DCACHE_SIZE
     1b4:	00820014 	movui	r2,2048
#endif

0:
    initd 0(r2)
     1b8:	10000033 	initd	0(r2)
    addi r2, r2, -NIOS2_DCACHE_LINE_SIZE
     1bc:	10bff804 	addi	r2,r2,-32
    bgt r2, zero, 0b
     1c0:	00bffd16 	blt	zero,r2,1b8 <_start+0x4>
#if (NIOS2_NUM_OF_SHADOW_REG_SETS == 0)    
    /*
     * Now that the caches are initialized, set up the stack pointer.
     * The value provided by the linker is assumed to be correctly aligned.
     */
    movhi sp, %hi(__alt_stack_pointer)
     1c4:	06c04034 	movhi	sp,256
    ori sp, sp, %lo(__alt_stack_pointer)
     1c8:	dec00014 	ori	sp,sp,0

    /* Set up the global pointer. */
    movhi gp, %hi(_gp)
     1cc:	068002b4 	movhi	gp,10
    ori gp, gp, %lo(_gp)
     1d0:	d698d314 	ori	gp,gp,25420
 */
#ifndef ALT_SIM_OPTIMIZE
    /* Log that the BSS is about to be cleared. */
    ALT_LOG_PUTS(alt_log_msg_bss)

    movhi r2, %hi(__bss_start)
     1d4:	00800274 	movhi	r2,9
    ori r2, r2, %lo(__bss_start)
     1d8:	10b8df14 	ori	r2,r2,58236

    movhi r3, %hi(__bss_end)
     1dc:	00c00274 	movhi	r3,9
    ori r3, r3, %lo(__bss_end)
     1e0:	18f98b14 	ori	r3,r3,58924

    beq r2, r3, 1f
     1e4:	10c00326 	beq	r2,r3,1f4 <_start+0x40>

0:
    stw zero, (r2)
     1e8:	10000015 	stw	zero,0(r2)
    addi r2, r2, 4
     1ec:	10800104 	addi	r2,r2,4
    bltu r2, r3, 0b
     1f0:	10fffd36 	bltu	r2,r3,1e8 <_start+0x34>

    /* Log that alt_main is about to be called. */
    ALT_LOG_PUTS(alt_log_msg_alt_main)

    /* Call the C entry point. It should never return. */
    call alt_main
     1f4:	000343c0 	call	343c <alt_main>

000001f8 <alt_after_alt_main>:

    /* Wait in infinite loop in case alt_main does return. */
alt_after_alt_main:
    br alt_after_alt_main
     1f8:	003fff06 	br	1f8 <alt_after_alt_main>

000001fc <LCD_Dir>:
 *@输入参数:alt_u16 dir: LCD_HORIZONTAL 横屏显示
 *						 LCD_VERTICAL	竖屏显示
 *@返回值  :void
*******************************************************/
void LCD_Dir(alt_u16 dir)
{
     1fc:	defffe04 	addi	sp,sp,-8
     200:	df000115 	stw	fp,4(sp)
     204:	df000104 	addi	fp,sp,4
     208:	e13fff0d 	sth	r4,-4(fp)
	if(dir == LCD_HORIZONTAL)
     20c:	e0bfff0b 	ldhu	r2,-4(fp)
     210:	10800058 	cmpnei	r2,r2,1
     214:	10000b1e 	bne	r2,zero,244 <LCD_Dir+0x48>
	{

		lcddev.dir   = LCD_HORIZONTAL;//横屏显示
     218:	00800044 	movi	r2,1
     21c:	d0a00d05 	stb	r2,-32716(gp)
		lcddev.x_len= 480; //x的总长度
     220:	00c002b4 	movhi	r3,10
     224:	18f8e084 	addi	r3,r3,-7294
     228:	00807804 	movi	r2,480
     22c:	1880000d 	sth	r2,0(r3)
		lcddev.y_len= 272; //y的总长度
     230:	00c002b4 	movhi	r3,10
     234:	18f8e104 	addi	r3,r3,-7292
     238:	00804404 	movi	r2,272
     23c:	1880000d 	sth	r2,0(r3)
     240:	00000c06 	br	274 <LCD_Dir+0x78>
	}
	else if(dir == LCD_VERTICAL)
     244:	e0bfff0b 	ldhu	r2,-4(fp)
     248:	1004c03a 	cmpne	r2,r2,zero
     24c:	1000091e 	bne	r2,zero,274 <LCD_Dir+0x78>
	{
		lcddev.dir   = LCD_VERTICAL;//横屏显示
     250:	d0200d05 	stb	zero,-32716(gp)
		lcddev.x_len = 272; //x的总长度
     254:	00c002b4 	movhi	r3,10
     258:	18f8e084 	addi	r3,r3,-7294
     25c:	00804404 	movi	r2,272
     260:	1880000d 	sth	r2,0(r3)
		lcddev.y_len = 480; //y的总长度
     264:	00c002b4 	movhi	r3,10
     268:	18f8e104 	addi	r3,r3,-7292
     26c:	00807804 	movi	r2,480
     270:	1880000d 	sth	r2,0(r3)

}
}
     274:	e037883a 	mov	sp,fp
     278:	df000017 	ldw	fp,0(sp)
     27c:	dec00104 	addi	sp,sp,4
     280:	f800283a 	ret

00000284 <LCD_Init>:
 *@功能描述:初始化LCD,用白色清屏
 *@输入参数:void
 *@返回值  :void
*******************************************************/
void LCD_Init(void)
{
     284:	defffe04 	addi	sp,sp,-8
     288:	dfc00115 	stw	ra,4(sp)
     28c:	df000015 	stw	fp,0(sp)
     290:	d839883a 	mov	fp,sp
	LCD_Dir(LCD_HORIZONTAL);//横屏显示
     294:	01000044 	movi	r4,1
     298:	00001fc0 	call	1fc <LCD_Dir>
	LCD_Clear(WHITE);
     29c:	013fffd4 	movui	r4,65535
     2a0:	00003640 	call	364 <LCD_Clear>
}
     2a4:	e037883a 	mov	sp,fp
     2a8:	dfc00117 	ldw	ra,4(sp)
     2ac:	df000017 	ldw	fp,0(sp)
     2b0:	dec00204 	addi	sp,sp,8
     2b4:	f800283a 	ret

000002b8 <LCD_DrawPoint>:
 *		   alt_u16 y    : y坐标
 *		   alt_u16 color: 点的颜色
 *@返回值  :0:正常, 1:坐标越界
*******************************************************/
alt_u8 LCD_DrawPoint(alt_u16 x,alt_u16 y,alt_u16 color)
{
     2b8:	defffc04 	addi	sp,sp,-16
     2bc:	df000315 	stw	fp,12(sp)
     2c0:	df000304 	addi	fp,sp,12
     2c4:	e13ffd0d 	sth	r4,-12(fp)
     2c8:	e17ffe0d 	sth	r5,-8(fp)
     2cc:	e1bfff0d 	sth	r6,-4(fp)
	{
			return 1;
	}
#endif

	if(lcddev.dir == LCD_HORIZONTAL)//横屏显示
     2d0:	d0a00d03 	ldbu	r2,-32716(gp)
     2d4:	10803fcc 	andi	r2,r2,255
     2d8:	10800058 	cmpnei	r2,r2,1
     2dc:	10000b1e 	bne	r2,zero,30c <LCD_DrawPoint+0x54>
		TFT_WR_XY(x,y, color);
     2e0:	e0fffd0b 	ldhu	r3,-12(fp)
     2e4:	e0bffe0b 	ldhu	r2,-8(fp)
     2e8:	10807824 	muli	r2,r2,480
     2ec:	1885883a 	add	r2,r3,r2
     2f0:	1085883a 	add	r2,r2,r2
     2f4:	1007883a 	mov	r3,r2
     2f8:	00804034 	movhi	r2,256
     2fc:	1885883a 	add	r2,r3,r2
     300:	e0ffff0b 	ldhu	r3,-4(fp)
     304:	10c0002d 	sthio	r3,0(r2)
     308:	00001106 	br	350 <LCD_DrawPoint+0x98>

	else //竖屏
		TFT_WR_XY((lcddev.x_len-1-x)<<9,y,color);
     30c:	008002b4 	movhi	r2,10
     310:	10b8e084 	addi	r2,r2,-7294
     314:	1080000b 	ldhu	r2,0(r2)
     318:	10ffffcc 	andi	r3,r2,65535
     31c:	e0bffd0b 	ldhu	r2,-12(fp)
     320:	1885c83a 	sub	r2,r3,r2
     324:	10bfffc4 	addi	r2,r2,-1
     328:	1006927a 	slli	r3,r2,9
     32c:	e0bffe0b 	ldhu	r2,-8(fp)
     330:	10807824 	muli	r2,r2,480
     334:	1885883a 	add	r2,r3,r2
     338:	1085883a 	add	r2,r2,r2
     33c:	1007883a 	mov	r3,r2
     340:	00804034 	movhi	r2,256
     344:	1885883a 	add	r2,r3,r2
     348:	e0ffff0b 	ldhu	r3,-4(fp)
     34c:	10c0002d 	sthio	r3,0(r2)

	return 0;
     350:	0005883a 	mov	r2,zero
}
     354:	e037883a 	mov	sp,fp
     358:	df000017 	ldw	fp,0(sp)
     35c:	dec00104 	addi	sp,sp,4
     360:	f800283a 	ret

00000364 <LCD_Clear>:
 *@功能描述:用指定颜色清屏
 *@输入参数:alt_u16 Color: 清屏的颜色
 *@返回值  :void
*******************************************************/
void LCD_Clear(alt_u16 Color)
{
     364:	defffc04 	addi	sp,sp,-16
     368:	dfc00315 	stw	ra,12(sp)
     36c:	df000215 	stw	fp,8(sp)
     370:	df000204 	addi	fp,sp,8
     374:	e13fff0d 	sth	r4,-4(fp)
	alt_u16 i,j;
	for(i=0; i<lcddev.x_len; i++)
     378:	e03ffe8d 	sth	zero,-6(fp)
     37c:	00001206 	br	3c8 <LCD_Clear+0x64>
	{
	  for(j=0; j<lcddev.y_len; j++)
     380:	e03ffe0d 	sth	zero,-8(fp)
     384:	00000706 	br	3a4 <LCD_Clear+0x40>
	  {
		  LCD_DrawPoint(i,j,Color);
     388:	e13ffe8b 	ldhu	r4,-6(fp)
     38c:	e17ffe0b 	ldhu	r5,-8(fp)
     390:	e1bfff0b 	ldhu	r6,-4(fp)
     394:	00002b80 	call	2b8 <LCD_DrawPoint>
void LCD_Clear(alt_u16 Color)
{
	alt_u16 i,j;
	for(i=0; i<lcddev.x_len; i++)
	{
	  for(j=0; j<lcddev.y_len; j++)
     398:	e0bffe0b 	ldhu	r2,-8(fp)
     39c:	10800044 	addi	r2,r2,1
     3a0:	e0bffe0d 	sth	r2,-8(fp)
     3a4:	008002b4 	movhi	r2,10
     3a8:	10b8e104 	addi	r2,r2,-7292
     3ac:	1080000b 	ldhu	r2,0(r2)
     3b0:	10ffffcc 	andi	r3,r2,65535
     3b4:	e0bffe0b 	ldhu	r2,-8(fp)
     3b8:	10fff336 	bltu	r2,r3,388 <LCD_Clear+0x24>
 *@返回值  :void
*******************************************************/
void LCD_Clear(alt_u16 Color)
{
	alt_u16 i,j;
	for(i=0; i<lcddev.x_len; i++)
     3bc:	e0bffe8b 	ldhu	r2,-6(fp)
     3c0:	10800044 	addi	r2,r2,1
     3c4:	e0bffe8d 	sth	r2,-6(fp)
     3c8:	008002b4 	movhi	r2,10
     3cc:	10b8e084 	addi	r2,r2,-7294
     3d0:	1080000b 	ldhu	r2,0(r2)
     3d4:	10ffffcc 	andi	r3,r2,65535
     3d8:	e0bffe8b 	ldhu	r2,-6(fp)
     3dc:	10ffe836 	bltu	r2,r3,380 <LCD_Clear+0x1c>
	  for(j=0; j<lcddev.y_len; j++)
	  {
		  LCD_DrawPoint(i,j,Color);
	  }
	}
}
     3e0:	e037883a 	mov	sp,fp
     3e4:	dfc00117 	ldw	ra,4(sp)
     3e8:	df000017 	ldw	fp,0(sp)
     3ec:	dec00204 	addi	sp,sp,8
     3f0:	f800283a 	ret

000003f4 <LCD_Fill>:
 *			alt_u16 ey   : end y  ,y结束坐标
 *			alt_u16 color: 填充的颜色
 *@返回值  :0:正常, 1:填充失败
*******************************************************/
alt_u8 LCD_Fill(alt_u16 sx,alt_u16 sy,alt_u16 ex,alt_u16 ey,alt_u16 color)
{
     3f4:	defff704 	addi	sp,sp,-36
     3f8:	dfc00815 	stw	ra,32(sp)
     3fc:	df000715 	stw	fp,28(sp)
     400:	df000704 	addi	fp,sp,28
     404:	e0800217 	ldw	r2,8(fp)
     408:	e13ffa0d 	sth	r4,-24(fp)
     40c:	e17ffb0d 	sth	r5,-20(fp)
     410:	e1bffc0d 	sth	r6,-16(fp)
     414:	e1fffd0d 	sth	r7,-12(fp)
     418:	e0bffe0d 	sth	r2,-8(fp)
	alt_u16 i=0,j=0;
     41c:	e03ff98d 	sth	zero,-26(fp)
     420:	e03ff90d 	sth	zero,-28(fp)

	//坐标超出显示区域，或者结束坐标大于起始坐标，则直接返回
	if(sx>=lcddev.x_len || sy>=lcddev.y_len || ex>=lcddev.x_len || ey>=lcddev.y_len || sx>ex || sy>ey)
     424:	008002b4 	movhi	r2,10
     428:	10b8e084 	addi	r2,r2,-7294
     42c:	1080000b 	ldhu	r2,0(r2)
     430:	10ffffcc 	andi	r3,r2,65535
     434:	e0bffa0b 	ldhu	r2,-24(fp)
     438:	10c0182e 	bgeu	r2,r3,49c <LCD_Fill+0xa8>
     43c:	008002b4 	movhi	r2,10
     440:	10b8e104 	addi	r2,r2,-7292
     444:	1080000b 	ldhu	r2,0(r2)
     448:	10ffffcc 	andi	r3,r2,65535
     44c:	e0bffb0b 	ldhu	r2,-20(fp)
     450:	10c0122e 	bgeu	r2,r3,49c <LCD_Fill+0xa8>
     454:	008002b4 	movhi	r2,10
     458:	10b8e084 	addi	r2,r2,-7294
     45c:	1080000b 	ldhu	r2,0(r2)
     460:	10ffffcc 	andi	r3,r2,65535
     464:	e0bffc0b 	ldhu	r2,-16(fp)
     468:	10c00c2e 	bgeu	r2,r3,49c <LCD_Fill+0xa8>
     46c:	008002b4 	movhi	r2,10
     470:	10b8e104 	addi	r2,r2,-7292
     474:	1080000b 	ldhu	r2,0(r2)
     478:	10ffffcc 	andi	r3,r2,65535
     47c:	e0bffd0b 	ldhu	r2,-12(fp)
     480:	10c0062e 	bgeu	r2,r3,49c <LCD_Fill+0xa8>
     484:	e0fffa0b 	ldhu	r3,-24(fp)
     488:	e0bffc0b 	ldhu	r2,-16(fp)
     48c:	10c00336 	bltu	r2,r3,49c <LCD_Fill+0xa8>
     490:	e0fffb0b 	ldhu	r3,-20(fp)
     494:	e0bffd0b 	ldhu	r2,-12(fp)
     498:	10c0032e 	bgeu	r2,r3,4a8 <LCD_Fill+0xb4>
		return 1;
     49c:	00800044 	movi	r2,1
     4a0:	e0bfff15 	stw	r2,-4(fp)
     4a4:	00001706 	br	504 <LCD_Fill+0x110>

	//正常绘图
	for(i=sx;i<=ex;i++)
     4a8:	e0bffa0b 	ldhu	r2,-24(fp)
     4ac:	e0bff98d 	sth	r2,-26(fp)
     4b0:	00001006 	br	4f4 <LCD_Fill+0x100>
	  for(j=sy;j<=ey;j++)
     4b4:	e0bffb0b 	ldhu	r2,-20(fp)
     4b8:	e0bff90d 	sth	r2,-28(fp)
     4bc:	00000706 	br	4dc <LCD_Fill+0xe8>
	      LCD_DrawPoint(i,j,color);
     4c0:	e13ff98b 	ldhu	r4,-26(fp)
     4c4:	e17ff90b 	ldhu	r5,-28(fp)
     4c8:	e1bffe0b 	ldhu	r6,-8(fp)
     4cc:	00002b80 	call	2b8 <LCD_DrawPoint>
	if(sx>=lcddev.x_len || sy>=lcddev.y_len || ex>=lcddev.x_len || ey>=lcddev.y_len || sx>ex || sy>ey)
		return 1;

	//正常绘图
	for(i=sx;i<=ex;i++)
	  for(j=sy;j<=ey;j++)
     4d0:	e0bff90b 	ldhu	r2,-28(fp)
     4d4:	10800044 	addi	r2,r2,1
     4d8:	e0bff90d 	sth	r2,-28(fp)
     4dc:	e0fff90b 	ldhu	r3,-28(fp)
     4e0:	e0bffd0b 	ldhu	r2,-12(fp)
     4e4:	10fff62e 	bgeu	r2,r3,4c0 <LCD_Fill+0xcc>
	//坐标超出显示区域，或者结束坐标大于起始坐标，则直接返回
	if(sx>=lcddev.x_len || sy>=lcddev.y_len || ex>=lcddev.x_len || ey>=lcddev.y_len || sx>ex || sy>ey)
		return 1;

	//正常绘图
	for(i=sx;i<=ex;i++)
     4e8:	e0bff98b 	ldhu	r2,-26(fp)
     4ec:	10800044 	addi	r2,r2,1
     4f0:	e0bff98d 	sth	r2,-26(fp)
     4f4:	e0fff98b 	ldhu	r3,-26(fp)
     4f8:	e0bffc0b 	ldhu	r2,-16(fp)
     4fc:	10ffed2e 	bgeu	r2,r3,4b4 <LCD_Fill+0xc0>
	  for(j=sy;j<=ey;j++)
	      LCD_DrawPoint(i,j,color);

	return 0;
     500:	e03fff15 	stw	zero,-4(fp)
     504:	e0bfff17 	ldw	r2,-4(fp)
}
     508:	e037883a 	mov	sp,fp
     50c:	dfc00117 	ldw	ra,4(sp)
     510:	df000017 	ldw	fp,0(sp)
     514:	dec00204 	addi	sp,sp,8
     518:	f800283a 	ret

0000051c <LCD_DrawLine>:
 *			alt_u16 color: 线的颜色
 *使用说明 :使用这个函数只要求两个点都在LCD显示范围内，不要求点的相对位置
 *@返回值  :0:正常, 1:画线失败
*******************************************************/
alt_u8 LCD_DrawLine(alt_u16 x1, alt_u16 y1, alt_u16 x2, alt_u16 y2)
{
     51c:	deffef04 	addi	sp,sp,-68
     520:	dfc01015 	stw	ra,64(sp)
     524:	df000f15 	stw	fp,60(sp)
     528:	df000f04 	addi	fp,sp,60
     52c:	e13ffb0d 	sth	r4,-20(fp)
     530:	e17ffc0d 	sth	r5,-16(fp)
     534:	e1bffd0d 	sth	r6,-12(fp)
     538:	e1fffe0d 	sth	r7,-8(fp)
	alt_u16 t;
	int xerr=0,yerr=0,delta_x,delta_y,distance;
     53c:	e03ff915 	stw	zero,-28(fp)
     540:	e03ff815 	stw	zero,-32(fp)
	int incx,incy,uRow,uCol;

	//坐标超出显示区域，则直接返回
	if(x1>=lcddev.x_len || y1>=lcddev.y_len || x2>=lcddev.x_len || y2>=lcddev.y_len)
     544:	008002b4 	movhi	r2,10
     548:	10b8e084 	addi	r2,r2,-7294
     54c:	1080000b 	ldhu	r2,0(r2)
     550:	10ffffcc 	andi	r3,r2,65535
     554:	e0bffb0b 	ldhu	r2,-20(fp)
     558:	10c0122e 	bgeu	r2,r3,5a4 <LCD_DrawLine+0x88>
     55c:	008002b4 	movhi	r2,10
     560:	10b8e104 	addi	r2,r2,-7292
     564:	1080000b 	ldhu	r2,0(r2)
     568:	10ffffcc 	andi	r3,r2,65535
     56c:	e0bffc0b 	ldhu	r2,-16(fp)
     570:	10c00c2e 	bgeu	r2,r3,5a4 <LCD_DrawLine+0x88>
     574:	008002b4 	movhi	r2,10
     578:	10b8e084 	addi	r2,r2,-7294
     57c:	1080000b 	ldhu	r2,0(r2)
     580:	10ffffcc 	andi	r3,r2,65535
     584:	e0bffd0b 	ldhu	r2,-12(fp)
     588:	10c0062e 	bgeu	r2,r3,5a4 <LCD_DrawLine+0x88>
     58c:	008002b4 	movhi	r2,10
     590:	10b8e104 	addi	r2,r2,-7292
     594:	1080000b 	ldhu	r2,0(r2)
     598:	10ffffcc 	andi	r3,r2,65535
     59c:	e0bffe0b 	ldhu	r2,-8(fp)
     5a0:	10c00336 	bltu	r2,r3,5b0 <LCD_DrawLine+0x94>
	{
		return 1;
     5a4:	00800044 	movi	r2,1
     5a8:	e0bfff15 	stw	r2,-4(fp)
     5ac:	00006006 	br	730 <LCD_DrawLine+0x214>
	}

	delta_x=x2-x1; //计算坐标增量
     5b0:	e0fffd0b 	ldhu	r3,-12(fp)
     5b4:	e0bffb0b 	ldhu	r2,-20(fp)
     5b8:	1885c83a 	sub	r2,r3,r2
     5bc:	e0bff715 	stw	r2,-36(fp)
	delta_y=y2-y1;
     5c0:	e0fffe0b 	ldhu	r3,-8(fp)
     5c4:	e0bffc0b 	ldhu	r2,-16(fp)
     5c8:	1885c83a 	sub	r2,r3,r2
     5cc:	e0bff615 	stw	r2,-40(fp)
	uRow=x1;
     5d0:	e0bffb0b 	ldhu	r2,-20(fp)
     5d4:	e0bff215 	stw	r2,-56(fp)
	uCol=y1;
     5d8:	e0bffc0b 	ldhu	r2,-16(fp)
     5dc:	e0bff115 	stw	r2,-60(fp)
	if(delta_x>0)
     5e0:	e0bff717 	ldw	r2,-36(fp)
     5e4:	10800050 	cmplti	r2,r2,1
     5e8:	1000031e 	bne	r2,zero,5f8 <LCD_DrawLine+0xdc>
		incx=1; //x步进为-1
     5ec:	00800044 	movi	r2,1
     5f0:	e0bff415 	stw	r2,-48(fp)
     5f4:	00000706 	br	614 <LCD_DrawLine+0xf8>
	else if(delta_x==0)
     5f8:	e0bff717 	ldw	r2,-36(fp)
     5fc:	1004c03a 	cmpne	r2,r2,zero
     600:	1000021e 	bne	r2,zero,60c <LCD_DrawLine+0xf0>
		incx=0;//垂直线
     604:	e03ff415 	stw	zero,-48(fp)
     608:	00000206 	br	614 <LCD_DrawLine+0xf8>
	else {
		incx=-1;//x步进为1
     60c:	00bfffc4 	movi	r2,-1
     610:	e0bff415 	stw	r2,-48(fp)
	}

	if(delta_y>0)
     614:	e0bff617 	ldw	r2,-40(fp)
     618:	10800050 	cmplti	r2,r2,1
     61c:	1000031e 	bne	r2,zero,62c <LCD_DrawLine+0x110>
		incy=1;
     620:	00800044 	movi	r2,1
     624:	e0bff315 	stw	r2,-52(fp)
     628:	00000a06 	br	654 <LCD_DrawLine+0x138>
	else if(delta_y==0)
     62c:	e0bff617 	ldw	r2,-40(fp)
     630:	1004c03a 	cmpne	r2,r2,zero
     634:	1000021e 	bne	r2,zero,640 <LCD_DrawLine+0x124>
		incy=0;//水平线
     638:	e03ff315 	stw	zero,-52(fp)
     63c:	00000506 	br	654 <LCD_DrawLine+0x138>
	else {
		incy=-1;delta_y=-delta_y;
     640:	00bfffc4 	movi	r2,-1
     644:	e0bff315 	stw	r2,-52(fp)
     648:	e0bff617 	ldw	r2,-40(fp)
     64c:	0085c83a 	sub	r2,zero,r2
     650:	e0bff615 	stw	r2,-40(fp)
	}

	if( delta_x>delta_y)
     654:	e0fff717 	ldw	r3,-36(fp)
     658:	e0bff617 	ldw	r2,-40(fp)
     65c:	10c0030e 	bge	r2,r3,66c <LCD_DrawLine+0x150>
		distance=delta_x; //选取基本增量坐标轴
     660:	e0bff717 	ldw	r2,-36(fp)
     664:	e0bff515 	stw	r2,-44(fp)
     668:	00000206 	br	674 <LCD_DrawLine+0x158>
	else
		distance=delta_y;
     66c:	e0bff617 	ldw	r2,-40(fp)
     670:	e0bff515 	stw	r2,-44(fp)

	for(t=0;t<=distance+1;t++ )//画线输出
     674:	e03ffa0d 	sth	zero,-24(fp)
     678:	00002806 	br	71c <LCD_DrawLine+0x200>
	{
		LCD_DrawPoint(uRow,uCol,POINT_COLOR);//画点
     67c:	e0bff217 	ldw	r2,-56(fp)
     680:	113fffcc 	andi	r4,r2,65535
     684:	e0bff117 	ldw	r2,-60(fp)
     688:	117fffcc 	andi	r5,r2,65535
     68c:	d0a00c0b 	ldhu	r2,-32720(gp)
     690:	11bfffcc 	andi	r6,r2,65535
     694:	00002b80 	call	2b8 <LCD_DrawPoint>
		xerr+=delta_x ;
     698:	e0fff917 	ldw	r3,-28(fp)
     69c:	e0bff717 	ldw	r2,-36(fp)
     6a0:	1885883a 	add	r2,r3,r2
     6a4:	e0bff915 	stw	r2,-28(fp)
		yerr+=delta_y ;
     6a8:	e0fff817 	ldw	r3,-32(fp)
     6ac:	e0bff617 	ldw	r2,-40(fp)
     6b0:	1885883a 	add	r2,r3,r2
     6b4:	e0bff815 	stw	r2,-32(fp)
		if(xerr>distance)
     6b8:	e0fff917 	ldw	r3,-28(fp)
     6bc:	e0bff517 	ldw	r2,-44(fp)
     6c0:	10c0080e 	bge	r2,r3,6e4 <LCD_DrawLine+0x1c8>
		{
			xerr-=distance;
     6c4:	e0fff917 	ldw	r3,-28(fp)
     6c8:	e0bff517 	ldw	r2,-44(fp)
     6cc:	1885c83a 	sub	r2,r3,r2
     6d0:	e0bff915 	stw	r2,-28(fp)
			uRow+=incx;
     6d4:	e0fff217 	ldw	r3,-56(fp)
     6d8:	e0bff417 	ldw	r2,-48(fp)
     6dc:	1885883a 	add	r2,r3,r2
     6e0:	e0bff215 	stw	r2,-56(fp)
		}
		if(yerr>distance)
     6e4:	e0fff817 	ldw	r3,-32(fp)
     6e8:	e0bff517 	ldw	r2,-44(fp)
     6ec:	10c0080e 	bge	r2,r3,710 <LCD_DrawLine+0x1f4>
		{
			yerr-=distance;
     6f0:	e0fff817 	ldw	r3,-32(fp)
     6f4:	e0bff517 	ldw	r2,-44(fp)
     6f8:	1885c83a 	sub	r2,r3,r2
     6fc:	e0bff815 	stw	r2,-32(fp)
			uCol+=incy;
     700:	e0fff117 	ldw	r3,-60(fp)
     704:	e0bff317 	ldw	r2,-52(fp)
     708:	1885883a 	add	r2,r3,r2
     70c:	e0bff115 	stw	r2,-60(fp)
	if( delta_x>delta_y)
		distance=delta_x; //选取基本增量坐标轴
	else
		distance=delta_y;

	for(t=0;t<=distance+1;t++ )//画线输出
     710:	e0bffa0b 	ldhu	r2,-24(fp)
     714:	10800044 	addi	r2,r2,1
     718:	e0bffa0d 	sth	r2,-24(fp)
     71c:	e0bffa0b 	ldhu	r2,-24(fp)
     720:	e0fff517 	ldw	r3,-44(fp)
     724:	18c00044 	addi	r3,r3,1
     728:	18bfd40e 	bge	r3,r2,67c <LCD_DrawLine+0x160>
		{
			yerr-=distance;
			uCol+=incy;
		}
	}
	return 0;
     72c:	e03fff15 	stw	zero,-4(fp)
     730:	e0bfff17 	ldw	r2,-4(fp)
}
     734:	e037883a 	mov	sp,fp
     738:	dfc00117 	ldw	ra,4(sp)
     73c:	df000017 	ldw	fp,0(sp)
     740:	dec00204 	addi	sp,sp,8
     744:	f800283a 	ret

00000748 <LCD_DrawRectangle>:
 			alt_u16 xe   : 第二个点的x坐标
 			alt_u16 ye   : 第二个点的y坐标
 *@返回值  :0:正常, 1:画矩形失败
*******************************************************/
alt_u8 LCD_DrawRectangle(alt_u16 xs, alt_u16 ys, alt_u16 xe, alt_u16 ye)
{
     748:	defff904 	addi	sp,sp,-28
     74c:	dfc00615 	stw	ra,24(sp)
     750:	df000515 	stw	fp,20(sp)
     754:	df000504 	addi	fp,sp,20
     758:	e13ffb0d 	sth	r4,-20(fp)
     75c:	e17ffc0d 	sth	r5,-16(fp)
     760:	e1bffd0d 	sth	r6,-12(fp)
     764:	e1fffe0d 	sth	r7,-8(fp)
	//坐标超出显示区域，则直接返回
	if(xs>=lcddev.x_len || ys>=lcddev.y_len || xe>=lcddev.x_len || ye>=lcddev.y_len)
     768:	008002b4 	movhi	r2,10
     76c:	10b8e084 	addi	r2,r2,-7294
     770:	1080000b 	ldhu	r2,0(r2)
     774:	10ffffcc 	andi	r3,r2,65535
     778:	e0bffb0b 	ldhu	r2,-20(fp)
     77c:	10c0122e 	bgeu	r2,r3,7c8 <LCD_DrawRectangle+0x80>
     780:	008002b4 	movhi	r2,10
     784:	10b8e104 	addi	r2,r2,-7292
     788:	1080000b 	ldhu	r2,0(r2)
     78c:	10ffffcc 	andi	r3,r2,65535
     790:	e0bffc0b 	ldhu	r2,-16(fp)
     794:	10c00c2e 	bgeu	r2,r3,7c8 <LCD_DrawRectangle+0x80>
     798:	008002b4 	movhi	r2,10
     79c:	10b8e084 	addi	r2,r2,-7294
     7a0:	1080000b 	ldhu	r2,0(r2)
     7a4:	10ffffcc 	andi	r3,r2,65535
     7a8:	e0bffd0b 	ldhu	r2,-12(fp)
     7ac:	10c0062e 	bgeu	r2,r3,7c8 <LCD_DrawRectangle+0x80>
     7b0:	008002b4 	movhi	r2,10
     7b4:	10b8e104 	addi	r2,r2,-7292
     7b8:	1080000b 	ldhu	r2,0(r2)
     7bc:	10ffffcc 	andi	r3,r2,65535
     7c0:	e0bffe0b 	ldhu	r2,-8(fp)
     7c4:	10c00336 	bltu	r2,r3,7d4 <LCD_DrawRectangle+0x8c>
	{
		return 1;
     7c8:	00800044 	movi	r2,1
     7cc:	e0bfff15 	stw	r2,-4(fp)
     7d0:	00001506 	br	828 <LCD_DrawRectangle+0xe0>
	}

	LCD_DrawLine(xs,ys,xe,ys);
     7d4:	e13ffb0b 	ldhu	r4,-20(fp)
     7d8:	e17ffc0b 	ldhu	r5,-16(fp)
     7dc:	e1bffd0b 	ldhu	r6,-12(fp)
     7e0:	e1fffc0b 	ldhu	r7,-16(fp)
     7e4:	000051c0 	call	51c <LCD_DrawLine>
	LCD_DrawLine(xs,ys,xs,ye);
     7e8:	e13ffb0b 	ldhu	r4,-20(fp)
     7ec:	e17ffc0b 	ldhu	r5,-16(fp)
     7f0:	e1bffb0b 	ldhu	r6,-20(fp)
     7f4:	e1fffe0b 	ldhu	r7,-8(fp)
     7f8:	000051c0 	call	51c <LCD_DrawLine>
	LCD_DrawLine(xs,ye,xe,ye);
     7fc:	e13ffb0b 	ldhu	r4,-20(fp)
     800:	e17ffe0b 	ldhu	r5,-8(fp)
     804:	e1bffd0b 	ldhu	r6,-12(fp)
     808:	e1fffe0b 	ldhu	r7,-8(fp)
     80c:	000051c0 	call	51c <LCD_DrawLine>
	LCD_DrawLine(xe,ys,xe,ye);
     810:	e13ffd0b 	ldhu	r4,-12(fp)
     814:	e17ffc0b 	ldhu	r5,-16(fp)
     818:	e1bffd0b 	ldhu	r6,-12(fp)
     81c:	e1fffe0b 	ldhu	r7,-8(fp)
     820:	000051c0 	call	51c <LCD_DrawLine>

	return 0;
     824:	e03fff15 	stw	zero,-4(fp)
     828:	e0bfff17 	ldw	r2,-4(fp)
}
     82c:	e037883a 	mov	sp,fp
     830:	dfc00117 	ldw	ra,4(sp)
     834:	df000017 	ldw	fp,0(sp)
     838:	dec00204 	addi	sp,sp,8
     83c:	f800283a 	ret

00000840 <Draw_Circle>:
 *			alt_u16 y0   : 圆心的y坐标
 *			alt_u8  r    : 圆的半径
 *@返回值  :0:正常, 1:画圆失败
*******************************************************/
alt_u8 Draw_Circle(alt_u16 x0,alt_u16 y0,alt_u8 r)
{
     840:	defff604 	addi	sp,sp,-40
     844:	dfc00915 	stw	ra,36(sp)
     848:	df000815 	stw	fp,32(sp)
     84c:	df000804 	addi	fp,sp,32
     850:	e13ffc0d 	sth	r4,-16(fp)
     854:	e17ffd0d 	sth	r5,-12(fp)
     858:	e1bffe05 	stb	r6,-8(fp)
	int a,b;
	int di;
	alt_u16 color_tmp=POINT_COLOR;
     85c:	d0a00c0b 	ldhu	r2,-32720(gp)
     860:	e0bff80d 	sth	r2,-32(fp)
	a=0;b=r;
     864:	e03ffb15 	stw	zero,-20(fp)
     868:	e0bffe03 	ldbu	r2,-8(fp)
     86c:	e0bffa15 	stw	r2,-24(fp)

    //坐标超出显示区域，则直接返回
	if(r>x0 || r>y0  || (x0+r)>=lcddev.x_len || (y0+r)>=lcddev.y_len)
     870:	e0bffe03 	ldbu	r2,-8(fp)
     874:	10ffffcc 	andi	r3,r2,65535
     878:	e0bffc0b 	ldhu	r2,-16(fp)
     87c:	10c01436 	bltu	r2,r3,8d0 <Draw_Circle+0x90>
     880:	e0bffe03 	ldbu	r2,-8(fp)
     884:	10ffffcc 	andi	r3,r2,65535
     888:	e0bffd0b 	ldhu	r2,-12(fp)
     88c:	10c01036 	bltu	r2,r3,8d0 <Draw_Circle+0x90>
     890:	e0fffc0b 	ldhu	r3,-16(fp)
     894:	e0bffe03 	ldbu	r2,-8(fp)
     898:	1887883a 	add	r3,r3,r2
     89c:	008002b4 	movhi	r2,10
     8a0:	10b8e084 	addi	r2,r2,-7294
     8a4:	1080000b 	ldhu	r2,0(r2)
     8a8:	10bfffcc 	andi	r2,r2,65535
     8ac:	1880080e 	bge	r3,r2,8d0 <Draw_Circle+0x90>
     8b0:	e0fffd0b 	ldhu	r3,-12(fp)
     8b4:	e0bffe03 	ldbu	r2,-8(fp)
     8b8:	1887883a 	add	r3,r3,r2
     8bc:	008002b4 	movhi	r2,10
     8c0:	10b8e104 	addi	r2,r2,-7292
     8c4:	1080000b 	ldhu	r2,0(r2)
     8c8:	10bfffcc 	andi	r2,r2,65535
     8cc:	18800316 	blt	r3,r2,8dc <Draw_Circle+0x9c>
	{
		return 1;
     8d0:	00800044 	movi	r2,1
     8d4:	e0bfff15 	stw	r2,-4(fp)
     8d8:	00009f06 	br	b58 <Draw_Circle+0x318>
	}

	di=3-(r<<1);             //判断下个点位置的标志
     8dc:	e0bffe03 	ldbu	r2,-8(fp)
     8e0:	1085883a 	add	r2,r2,r2
     8e4:	1007883a 	mov	r3,r2
     8e8:	008000c4 	movi	r2,3
     8ec:	10c5c83a 	sub	r2,r2,r3
     8f0:	e0bff915 	stw	r2,-28(fp)

	while(a<=b)
     8f4:	00009406 	br	b48 <Draw_Circle+0x308>
	{
		LCD_DrawPoint(x0-b,y0-a,color_tmp);             //3
     8f8:	e0bffa17 	ldw	r2,-24(fp)
     8fc:	1007883a 	mov	r3,r2
     900:	e0bffc0b 	ldhu	r2,-16(fp)
     904:	10c5c83a 	sub	r2,r2,r3
     908:	113fffcc 	andi	r4,r2,65535
     90c:	e0bffb17 	ldw	r2,-20(fp)
     910:	1007883a 	mov	r3,r2
     914:	e0bffd0b 	ldhu	r2,-12(fp)
     918:	10c5c83a 	sub	r2,r2,r3
     91c:	117fffcc 	andi	r5,r2,65535
     920:	e1bff80b 	ldhu	r6,-32(fp)
     924:	00002b80 	call	2b8 <LCD_DrawPoint>
		LCD_DrawPoint(x0+b,y0-a,color_tmp);
     928:	e0bffa17 	ldw	r2,-24(fp)
     92c:	1007883a 	mov	r3,r2
     930:	e0bffc0b 	ldhu	r2,-16(fp)
     934:	1885883a 	add	r2,r3,r2
     938:	113fffcc 	andi	r4,r2,65535
     93c:	e0bffb17 	ldw	r2,-20(fp)
     940:	1007883a 	mov	r3,r2
     944:	e0bffd0b 	ldhu	r2,-12(fp)
     948:	10c5c83a 	sub	r2,r2,r3
     94c:	117fffcc 	andi	r5,r2,65535
     950:	e1bff80b 	ldhu	r6,-32(fp)
     954:	00002b80 	call	2b8 <LCD_DrawPoint>
		LCD_DrawPoint(x0-a,y0+b,color_tmp);
     958:	e0bffb17 	ldw	r2,-20(fp)
     95c:	1007883a 	mov	r3,r2
     960:	e0bffc0b 	ldhu	r2,-16(fp)
     964:	10c5c83a 	sub	r2,r2,r3
     968:	113fffcc 	andi	r4,r2,65535
     96c:	e0bffa17 	ldw	r2,-24(fp)
     970:	1007883a 	mov	r3,r2
     974:	e0bffd0b 	ldhu	r2,-12(fp)
     978:	1885883a 	add	r2,r3,r2
     97c:	117fffcc 	andi	r5,r2,65535
     980:	e1bff80b 	ldhu	r6,-32(fp)
     984:	00002b80 	call	2b8 <LCD_DrawPoint>
		LCD_DrawPoint(x0-b,y0-a,color_tmp);
     988:	e0bffa17 	ldw	r2,-24(fp)
     98c:	1007883a 	mov	r3,r2
     990:	e0bffc0b 	ldhu	r2,-16(fp)
     994:	10c5c83a 	sub	r2,r2,r3
     998:	113fffcc 	andi	r4,r2,65535
     99c:	e0bffb17 	ldw	r2,-20(fp)
     9a0:	1007883a 	mov	r3,r2
     9a4:	e0bffd0b 	ldhu	r2,-12(fp)
     9a8:	10c5c83a 	sub	r2,r2,r3
     9ac:	117fffcc 	andi	r5,r2,65535
     9b0:	e1bff80b 	ldhu	r6,-32(fp)
     9b4:	00002b80 	call	2b8 <LCD_DrawPoint>
		LCD_DrawPoint(x0-a,y0-b,color_tmp);
     9b8:	e0bffb17 	ldw	r2,-20(fp)
     9bc:	1007883a 	mov	r3,r2
     9c0:	e0bffc0b 	ldhu	r2,-16(fp)
     9c4:	10c5c83a 	sub	r2,r2,r3
     9c8:	113fffcc 	andi	r4,r2,65535
     9cc:	e0bffa17 	ldw	r2,-24(fp)
     9d0:	1007883a 	mov	r3,r2
     9d4:	e0bffd0b 	ldhu	r2,-12(fp)
     9d8:	10c5c83a 	sub	r2,r2,r3
     9dc:	117fffcc 	andi	r5,r2,65535
     9e0:	e1bff80b 	ldhu	r6,-32(fp)
     9e4:	00002b80 	call	2b8 <LCD_DrawPoint>
		LCD_DrawPoint(x0+b,y0+a,color_tmp);             //4
     9e8:	e0bffa17 	ldw	r2,-24(fp)
     9ec:	1007883a 	mov	r3,r2
     9f0:	e0bffc0b 	ldhu	r2,-16(fp)
     9f4:	1885883a 	add	r2,r3,r2
     9f8:	113fffcc 	andi	r4,r2,65535
     9fc:	e0bffb17 	ldw	r2,-20(fp)
     a00:	1007883a 	mov	r3,r2
     a04:	e0bffd0b 	ldhu	r2,-12(fp)
     a08:	1885883a 	add	r2,r3,r2
     a0c:	117fffcc 	andi	r5,r2,65535
     a10:	e1bff80b 	ldhu	r6,-32(fp)
     a14:	00002b80 	call	2b8 <LCD_DrawPoint>
		LCD_DrawPoint(x0+a,y0-b,color_tmp);
     a18:	e0bffb17 	ldw	r2,-20(fp)
     a1c:	1007883a 	mov	r3,r2
     a20:	e0bffc0b 	ldhu	r2,-16(fp)
     a24:	1885883a 	add	r2,r3,r2
     a28:	113fffcc 	andi	r4,r2,65535
     a2c:	e0bffa17 	ldw	r2,-24(fp)
     a30:	1007883a 	mov	r3,r2
     a34:	e0bffd0b 	ldhu	r2,-12(fp)
     a38:	10c5c83a 	sub	r2,r2,r3
     a3c:	117fffcc 	andi	r5,r2,65535
     a40:	e1bff80b 	ldhu	r6,-32(fp)
     a44:	00002b80 	call	2b8 <LCD_DrawPoint>
		LCD_DrawPoint(x0+a,y0+b,color_tmp);
     a48:	e0bffb17 	ldw	r2,-20(fp)
     a4c:	1007883a 	mov	r3,r2
     a50:	e0bffc0b 	ldhu	r2,-16(fp)
     a54:	1885883a 	add	r2,r3,r2
     a58:	113fffcc 	andi	r4,r2,65535
     a5c:	e0bffa17 	ldw	r2,-24(fp)
     a60:	1007883a 	mov	r3,r2
     a64:	e0bffd0b 	ldhu	r2,-12(fp)
     a68:	1885883a 	add	r2,r3,r2
     a6c:	117fffcc 	andi	r5,r2,65535
     a70:	e1bff80b 	ldhu	r6,-32(fp)
     a74:	00002b80 	call	2b8 <LCD_DrawPoint>
		LCD_DrawPoint(x0-b,y0+a,color_tmp);
     a78:	e0bffa17 	ldw	r2,-24(fp)
     a7c:	1007883a 	mov	r3,r2
     a80:	e0bffc0b 	ldhu	r2,-16(fp)
     a84:	10c5c83a 	sub	r2,r2,r3
     a88:	113fffcc 	andi	r4,r2,65535
     a8c:	e0bffb17 	ldw	r2,-20(fp)
     a90:	1007883a 	mov	r3,r2
     a94:	e0bffd0b 	ldhu	r2,-12(fp)
     a98:	1885883a 	add	r2,r3,r2
     a9c:	117fffcc 	andi	r5,r2,65535
     aa0:	e1bff80b 	ldhu	r6,-32(fp)
     aa4:	00002b80 	call	2b8 <LCD_DrawPoint>
		a++;
     aa8:	e0bffb17 	ldw	r2,-20(fp)
     aac:	10800044 	addi	r2,r2,1
     ab0:	e0bffb15 	stw	r2,-20(fp)
		//使用Bresenham算法画圆
		if(di<0)di +=4*a+6;
     ab4:	e0bff917 	ldw	r2,-28(fp)
     ab8:	1004403a 	cmpge	r2,r2,zero
     abc:	1000091e 	bne	r2,zero,ae4 <Draw_Circle+0x2a4>
     ac0:	e0bffb17 	ldw	r2,-20(fp)
     ac4:	1085883a 	add	r2,r2,r2
     ac8:	1085883a 	add	r2,r2,r2
     acc:	1007883a 	mov	r3,r2
     ad0:	e0bff917 	ldw	r2,-28(fp)
     ad4:	1885883a 	add	r2,r3,r2
     ad8:	10800184 	addi	r2,r2,6
     adc:	e0bff915 	stw	r2,-28(fp)
     ae0:	00000d06 	br	b18 <Draw_Circle+0x2d8>
		else
		{
			di+=10+4*(a-b);
     ae4:	e0fffb17 	ldw	r3,-20(fp)
     ae8:	e0bffa17 	ldw	r2,-24(fp)
     aec:	1885c83a 	sub	r2,r3,r2
     af0:	1085883a 	add	r2,r2,r2
     af4:	1085883a 	add	r2,r2,r2
     af8:	1007883a 	mov	r3,r2
     afc:	e0bff917 	ldw	r2,-28(fp)
     b00:	1885883a 	add	r2,r3,r2
     b04:	10800284 	addi	r2,r2,10
     b08:	e0bff915 	stw	r2,-28(fp)
			b--;
     b0c:	e0bffa17 	ldw	r2,-24(fp)
     b10:	10bfffc4 	addi	r2,r2,-1
     b14:	e0bffa15 	stw	r2,-24(fp)
		}
		LCD_DrawPoint(x0+a,y0+b,color_tmp);
     b18:	e0bffb17 	ldw	r2,-20(fp)
     b1c:	1007883a 	mov	r3,r2
     b20:	e0bffc0b 	ldhu	r2,-16(fp)
     b24:	1885883a 	add	r2,r3,r2
     b28:	113fffcc 	andi	r4,r2,65535
     b2c:	e0bffa17 	ldw	r2,-24(fp)
     b30:	1007883a 	mov	r3,r2
     b34:	e0bffd0b 	ldhu	r2,-12(fp)
     b38:	1885883a 	add	r2,r3,r2
     b3c:	117fffcc 	andi	r5,r2,65535
     b40:	e1bff80b 	ldhu	r6,-32(fp)
     b44:	00002b80 	call	2b8 <LCD_DrawPoint>
		return 1;
	}

	di=3-(r<<1);             //判断下个点位置的标志

	while(a<=b)
     b48:	e0fffb17 	ldw	r3,-20(fp)
     b4c:	e0bffa17 	ldw	r2,-24(fp)
     b50:	10ff690e 	bge	r2,r3,8f8 <Draw_Circle+0xb8>
			di+=10+4*(a-b);
			b--;
		}
		LCD_DrawPoint(x0+a,y0+b,color_tmp);
	}
	return 0;
     b54:	e03fff15 	stw	zero,-4(fp)
     b58:	e0bfff17 	ldw	r2,-4(fp)
}
     b5c:	e037883a 	mov	sp,fp
     b60:	dfc00117 	ldw	ra,4(sp)
     b64:	df000017 	ldw	fp,0(sp)
     b68:	dec00204 	addi	sp,sp,8
     b6c:	f800283a 	ret

00000b70 <LCD_ShowChar>:
 *			alt_u8  overlay  : 1:叠加 0不叠加
 *                           叠加显示适合在图片上显示固定的内容。不叠加适合显示温度、电压等经常变化的值。
 *@返回值  :0:正常, 1:显示字符失败
*******************************************************/
alt_u8 LCD_ShowChar(alt_u16 x,alt_u16 y,alt_u8 show,alt_u8 size,alt_u8 overlay)
{
     b70:	defff504 	addi	sp,sp,-44
     b74:	dfc00a15 	stw	ra,40(sp)
     b78:	df000915 	stw	fp,36(sp)
     b7c:	df000904 	addi	fp,sp,36
     b80:	e0800217 	ldw	r2,8(fp)
     b84:	e13ffa0d 	sth	r4,-24(fp)
     b88:	e17ffb0d 	sth	r5,-20(fp)
     b8c:	e1bffc05 	stb	r6,-16(fp)
     b90:	e1fffd05 	stb	r7,-12(fp)
     b94:	e0bffe05 	stb	r2,-8(fp)
	alt_u16 MAX_CHAR_POSX =  lcddev.x_len - size;
     b98:	008002b4 	movhi	r2,10
     b9c:	10b8e084 	addi	r2,r2,-7294
     ba0:	10c0000b 	ldhu	r3,0(r2)
     ba4:	e0bffd03 	ldbu	r2,-12(fp)
     ba8:	1885c83a 	sub	r2,r3,r2
     bac:	e0bff98d 	sth	r2,-26(fp)
	alt_u16 MAX_CHAR_POSY =  lcddev.y_len - (size/2);
     bb0:	008002b4 	movhi	r2,10
     bb4:	10b8e104 	addi	r2,r2,-7292
     bb8:	10c0000b 	ldhu	r3,0(r2)
     bbc:	e0bffd03 	ldbu	r2,-12(fp)
     bc0:	1004d07a 	srli	r2,r2,1
     bc4:	10803fcc 	andi	r2,r2,255
     bc8:	1885c83a 	sub	r2,r3,r2
     bcc:	e0bff90d 	sth	r2,-28(fp)

	alt_u8 num = show;
     bd0:	e0bffc03 	ldbu	r2,-16(fp)
     bd4:	e0bff8c5 	stb	r2,-29(fp)
	alt_u8 temp;
	alt_u8 pos,t;
	alt_u16 x0=x;
     bd8:	e0bffa0b 	ldhu	r2,-24(fp)
     bdc:	e0bff78d 	sth	r2,-34(fp)
	alt_u16 colortmp=POINT_COLOR;
     be0:	d0a00c0b 	ldhu	r2,-32720(gp)
     be4:	e0bff70d 	sth	r2,-36(fp)

    if(x>MAX_CHAR_POSX || y>MAX_CHAR_POSY)
     be8:	e0fffa0b 	ldhu	r3,-24(fp)
     bec:	e0bff98b 	ldhu	r2,-26(fp)
     bf0:	10c00336 	bltu	r2,r3,c00 <LCD_ShowChar+0x90>
     bf4:	e0fffb0b 	ldhu	r3,-20(fp)
     bf8:	e0bff90b 	ldhu	r2,-28(fp)
     bfc:	10c0032e 	bgeu	r2,r3,c0c <LCD_ShowChar+0x9c>
		return 1;
     c00:	00800044 	movi	r2,1
     c04:	e0bfff15 	stw	r2,-4(fp)
     c08:	00007e06 	br	e04 <LCD_ShowChar+0x294>

	num=num-' ';//得到偏移后的值
     c0c:	e0bff8c3 	ldbu	r2,-29(fp)
     c10:	10bff804 	addi	r2,r2,-32
     c14:	e0bff8c5 	stb	r2,-29(fp)
	if(!overlay) //非叠加方式
     c18:	e0bffe03 	ldbu	r2,-8(fp)
     c1c:	1004c03a 	cmpne	r2,r2,zero
     c20:	1000431e 	bne	r2,zero,d30 <LCD_ShowChar+0x1c0>
	{
		for(pos=0;pos<size;pos++)
     c24:	e03ff845 	stb	zero,-31(fp)
     c28:	00003d06 	br	d20 <LCD_ShowChar+0x1b0>
		{
			if(size==12)temp=asc2_1206[num][pos];//调用1206字体
     c2c:	e0bffd03 	ldbu	r2,-12(fp)
     c30:	10800318 	cmpnei	r2,r2,12
     c34:	10000a1e 	bne	r2,zero,c60 <LCD_ShowChar+0xf0>
     c38:	e0bff8c3 	ldbu	r2,-29(fp)
     c3c:	e13ff843 	ldbu	r4,-31(fp)
     c40:	00c00034 	movhi	r3,0
     c44:	18d91c04 	addi	r3,r3,25712
     c48:	10800324 	muli	r2,r2,12
     c4c:	10c5883a 	add	r2,r2,r3
     c50:	1105883a 	add	r2,r2,r4
     c54:	10800003 	ldbu	r2,0(r2)
     c58:	e0bff885 	stb	r2,-30(fp)
     c5c:	00000906 	br	c84 <LCD_ShowChar+0x114>
			else temp=asc2_1608[num][pos];		 //调用1608字体
     c60:	e0bff8c3 	ldbu	r2,-29(fp)
     c64:	e13ff843 	ldbu	r4,-31(fp)
     c68:	00c00034 	movhi	r3,0
     c6c:	18da3904 	addi	r3,r3,26852
     c70:	1004913a 	slli	r2,r2,4
     c74:	10c5883a 	add	r2,r2,r3
     c78:	1105883a 	add	r2,r2,r4
     c7c:	10800003 	ldbu	r2,0(r2)
     c80:	e0bff885 	stb	r2,-30(fp)
			for(t=0;t<size/2;t++)
     c84:	e03ff805 	stb	zero,-32(fp)
     c88:	00001806 	br	cec <LCD_ShowChar+0x17c>
		    {
		        if(temp&0x01)
     c8c:	e0bff883 	ldbu	r2,-30(fp)
     c90:	1080004c 	andi	r2,r2,1
     c94:	10803fcc 	andi	r2,r2,255
     c98:	1005003a 	cmpeq	r2,r2,zero
     c9c:	1000051e 	bne	r2,zero,cb4 <LCD_ShowChar+0x144>
		        	LCD_DrawPoint(x,y,colortmp);
     ca0:	e13ffa0b 	ldhu	r4,-24(fp)
     ca4:	e17ffb0b 	ldhu	r5,-20(fp)
     ca8:	e1bff70b 	ldhu	r6,-36(fp)
     cac:	00002b80 	call	2b8 <LCD_DrawPoint>
     cb0:	00000506 	br	cc8 <LCD_ShowChar+0x158>
				else
		        	LCD_DrawPoint(x,y,BACK_COLOR);
     cb4:	e13ffa0b 	ldhu	r4,-24(fp)
     cb8:	e17ffb0b 	ldhu	r5,-20(fp)
     cbc:	d0a0000b 	ldhu	r2,-32768(gp)
     cc0:	11bfffcc 	andi	r6,r2,65535
     cc4:	00002b80 	call	2b8 <LCD_DrawPoint>

				temp>>=1;
     cc8:	e0bff883 	ldbu	r2,-30(fp)
     ccc:	1004d07a 	srli	r2,r2,1
     cd0:	e0bff885 	stb	r2,-30(fp)
				x++;
     cd4:	e0bffa0b 	ldhu	r2,-24(fp)
     cd8:	10800044 	addi	r2,r2,1
     cdc:	e0bffa0d 	sth	r2,-24(fp)
	{
		for(pos=0;pos<size;pos++)
		{
			if(size==12)temp=asc2_1206[num][pos];//调用1206字体
			else temp=asc2_1608[num][pos];		 //调用1608字体
			for(t=0;t<size/2;t++)
     ce0:	e0bff803 	ldbu	r2,-32(fp)
     ce4:	10800044 	addi	r2,r2,1
     ce8:	e0bff805 	stb	r2,-32(fp)
     cec:	e0bffd03 	ldbu	r2,-12(fp)
     cf0:	1004d07a 	srli	r2,r2,1
     cf4:	10c03fcc 	andi	r3,r2,255
     cf8:	e0bff803 	ldbu	r2,-32(fp)
     cfc:	10ffe336 	bltu	r2,r3,c8c <LCD_ShowChar+0x11c>
		        	LCD_DrawPoint(x,y,BACK_COLOR);

				temp>>=1;
				x++;
		    }
			x=x0;
     d00:	e0bff78b 	ldhu	r2,-34(fp)
     d04:	e0bffa0d 	sth	r2,-24(fp)
	        y++;
     d08:	e0bffb0b 	ldhu	r2,-20(fp)
     d0c:	10800044 	addi	r2,r2,1
     d10:	e0bffb0d 	sth	r2,-20(fp)
		return 1;

	num=num-' ';//得到偏移后的值
	if(!overlay) //非叠加方式
	{
		for(pos=0;pos<size;pos++)
     d14:	e0bff843 	ldbu	r2,-31(fp)
     d18:	10800044 	addi	r2,r2,1
     d1c:	e0bff845 	stb	r2,-31(fp)
     d20:	e0fff843 	ldbu	r3,-31(fp)
     d24:	e0bffd03 	ldbu	r2,-12(fp)
     d28:	18bfc036 	bltu	r3,r2,c2c <LCD_ShowChar+0xbc>
     d2c:	00003406 	br	e00 <LCD_ShowChar+0x290>
			x=x0;
	        y++;
		}
	}else//叠加方式
	{
		for(pos=0;pos<size;pos++)
     d30:	e03ff845 	stb	zero,-31(fp)
     d34:	00002f06 	br	df4 <LCD_ShowChar+0x284>
		{
			if(size==12)temp=asc2_1206[num][pos];//调用1206字体
     d38:	e0bffd03 	ldbu	r2,-12(fp)
     d3c:	10800318 	cmpnei	r2,r2,12
     d40:	10000a1e 	bne	r2,zero,d6c <LCD_ShowChar+0x1fc>
     d44:	e0bff8c3 	ldbu	r2,-29(fp)
     d48:	e13ff843 	ldbu	r4,-31(fp)
     d4c:	00c00034 	movhi	r3,0
     d50:	18d91c04 	addi	r3,r3,25712
     d54:	10800324 	muli	r2,r2,12
     d58:	10c5883a 	add	r2,r2,r3
     d5c:	1105883a 	add	r2,r2,r4
     d60:	10800003 	ldbu	r2,0(r2)
     d64:	e0bff885 	stb	r2,-30(fp)
     d68:	00000906 	br	d90 <LCD_ShowChar+0x220>
			else temp=asc2_1608[num][pos];		 //调用1608字体
     d6c:	e0bff8c3 	ldbu	r2,-29(fp)
     d70:	e13ff843 	ldbu	r4,-31(fp)
     d74:	00c00034 	movhi	r3,0
     d78:	18da3904 	addi	r3,r3,26852
     d7c:	1004913a 	slli	r2,r2,4
     d80:	10c5883a 	add	r2,r2,r3
     d84:	1105883a 	add	r2,r2,r4
     d88:	10800003 	ldbu	r2,0(r2)
     d8c:	e0bff885 	stb	r2,-30(fp)
			for(t=0;t<size/2;t++)
     d90:	e03ff805 	stb	zero,-32(fp)
     d94:	00000f06 	br	dd4 <LCD_ShowChar+0x264>
		    {
				if(temp&0x01)
     d98:	e0bff883 	ldbu	r2,-30(fp)
     d9c:	1080004c 	andi	r2,r2,1
     da0:	10803fcc 	andi	r2,r2,255
     da4:	1005003a 	cmpeq	r2,r2,zero
     da8:	1000041e 	bne	r2,zero,dbc <LCD_ShowChar+0x24c>
					LCD_DrawPoint(x,y,colortmp);
     dac:	e13ffa0b 	ldhu	r4,-24(fp)
     db0:	e17ffb0b 	ldhu	r5,-20(fp)
     db4:	e1bff70b 	ldhu	r6,-36(fp)
     db8:	00002b80 	call	2b8 <LCD_DrawPoint>
				temp>>=1;
     dbc:	e0bff883 	ldbu	r2,-30(fp)
     dc0:	1004d07a 	srli	r2,r2,1
     dc4:	e0bff885 	stb	r2,-30(fp)
	{
		for(pos=0;pos<size;pos++)
		{
			if(size==12)temp=asc2_1206[num][pos];//调用1206字体
			else temp=asc2_1608[num][pos];		 //调用1608字体
			for(t=0;t<size/2;t++)
     dc8:	e0bff803 	ldbu	r2,-32(fp)
     dcc:	10800044 	addi	r2,r2,1
     dd0:	e0bff805 	stb	r2,-32(fp)
     dd4:	e0bffd03 	ldbu	r2,-12(fp)
     dd8:	1004d07a 	srli	r2,r2,1
     ddc:	10c03fcc 	andi	r3,r2,255
     de0:	e0bff803 	ldbu	r2,-32(fp)
     de4:	10ffec36 	bltu	r2,r3,d98 <LCD_ShowChar+0x228>
			x=x0;
	        y++;
		}
	}else//叠加方式
	{
		for(pos=0;pos<size;pos++)
     de8:	e0bff843 	ldbu	r2,-31(fp)
     dec:	10800044 	addi	r2,r2,1
     df0:	e0bff845 	stb	r2,-31(fp)
     df4:	e0fff843 	ldbu	r3,-31(fp)
     df8:	e0bffd03 	ldbu	r2,-12(fp)
     dfc:	18bfce36 	bltu	r3,r2,d38 <LCD_ShowChar+0x1c8>
					LCD_DrawPoint(x,y,colortmp);
				temp>>=1;
		    }
		}
	}
	return 0;
     e00:	e03fff15 	stw	zero,-4(fp)
     e04:	e0bfff17 	ldw	r2,-4(fp)
}
     e08:	e037883a 	mov	sp,fp
     e0c:	dfc00117 	ldw	ra,4(sp)
     e10:	df000017 	ldw	fp,0(sp)
     e14:	dec00204 	addi	sp,sp,8
     e18:	f800283a 	ret

00000e1c <mypow>:

//m^n函数
alt_u32 mypow(alt_u8 m,alt_u8 n)
{
     e1c:	defffc04 	addi	sp,sp,-16
     e20:	df000315 	stw	fp,12(sp)
     e24:	df000304 	addi	fp,sp,12
     e28:	e13ffe05 	stb	r4,-8(fp)
     e2c:	e17fff05 	stb	r5,-4(fp)
	alt_u32 result=1;
     e30:	00800044 	movi	r2,1
     e34:	e0bffd15 	stw	r2,-12(fp)
	while(n--)result*=m;
     e38:	00000406 	br	e4c <mypow+0x30>
     e3c:	e0bffe03 	ldbu	r2,-8(fp)
     e40:	e0fffd17 	ldw	r3,-12(fp)
     e44:	1885383a 	mul	r2,r3,r2
     e48:	e0bffd15 	stw	r2,-12(fp)
     e4c:	e0bfff03 	ldbu	r2,-4(fp)
     e50:	10bfffc4 	addi	r2,r2,-1
     e54:	e0bfff05 	stb	r2,-4(fp)
     e58:	e0bfff03 	ldbu	r2,-4(fp)
     e5c:	10803fd8 	cmpnei	r2,r2,255
     e60:	103ff61e 	bne	r2,zero,e3c <mypow+0x20>
	return result;
     e64:	e0bffd17 	ldw	r2,-12(fp)
}
     e68:	e037883a 	mov	sp,fp
     e6c:	df000017 	ldw	fp,0(sp)
     e70:	dec00104 	addi	sp,sp,4
     e74:	f800283a 	ret

00000e78 <LCD_ShowNum>:
 *			alt_u8  len      : 长度
 *			alt_u8  size     : 字体大小 12:1206  16:1608.
 *@返回值  :0:正常, 1:显示整数失败
*******************************************************/
alt_u8 LCD_ShowNum(alt_u16 x,alt_u16 y,alt_u32 num,alt_u8 len,alt_u8 size)
{
     e78:	defff604 	addi	sp,sp,-40
     e7c:	dfc00915 	stw	ra,36(sp)
     e80:	df000815 	stw	fp,32(sp)
     e84:	df000804 	addi	fp,sp,32
     e88:	e1bffc15 	stw	r6,-16(fp)
     e8c:	e0800217 	ldw	r2,8(fp)
     e90:	e13ffa0d 	sth	r4,-24(fp)
     e94:	e17ffb0d 	sth	r5,-20(fp)
     e98:	e1fffd05 	stb	r7,-12(fp)
     e9c:	e0bffe05 	stb	r2,-8(fp)
	alt_u8 t,temp;
	alt_u8 enshow=0;
     ea0:	e03ff905 	stb	zero,-28(fp)

	for(t=0;t<len;t++)
     ea4:	e03ff985 	stb	zero,-26(fp)
     ea8:	00004106 	br	fb0 <LCD_ShowNum+0x138>
	{
		temp=(num/mypow(10,len-t-1))%10;
     eac:	e0fffd03 	ldbu	r3,-12(fp)
     eb0:	e0bff983 	ldbu	r2,-26(fp)
     eb4:	1885c83a 	sub	r2,r3,r2
     eb8:	10bfffc4 	addi	r2,r2,-1
     ebc:	11403fcc 	andi	r5,r2,255
     ec0:	01000284 	movi	r4,10
     ec4:	0000e1c0 	call	e1c <mypow>
     ec8:	100b883a 	mov	r5,r2
     ecc:	e13ffc17 	ldw	r4,-16(fp)
     ed0:	0002ee00 	call	2ee0 <__udivsi3>
     ed4:	1009883a 	mov	r4,r2
     ed8:	01400284 	movi	r5,10
     edc:	0002ee80 	call	2ee8 <__umodsi3>
     ee0:	e0bff945 	stb	r2,-27(fp)
		if(enshow==0&&t<(len-1))
     ee4:	e0bff903 	ldbu	r2,-28(fp)
     ee8:	1004c03a 	cmpne	r2,r2,zero
     eec:	10001d1e 	bne	r2,zero,f64 <LCD_ShowNum+0xec>
     ef0:	e0bff983 	ldbu	r2,-26(fp)
     ef4:	e0fffd03 	ldbu	r3,-12(fp)
     ef8:	18ffffc4 	addi	r3,r3,-1
     efc:	10c0190e 	bge	r2,r3,f64 <LCD_ShowNum+0xec>
		{
			if(temp==0)
     f00:	e0bff943 	ldbu	r2,-27(fp)
     f04:	1004c03a 	cmpne	r2,r2,zero
     f08:	1000141e 	bne	r2,zero,f5c <LCD_ShowNum+0xe4>
			{
				if( LCD_ShowChar(x+(size/2)*t,y,' ',size,0) )
     f0c:	e0bffe03 	ldbu	r2,-8(fp)
     f10:	1004d07a 	srli	r2,r2,1
     f14:	10c03fcc 	andi	r3,r2,255
     f18:	e0bff983 	ldbu	r2,-26(fp)
     f1c:	1885383a 	mul	r2,r3,r2
     f20:	1007883a 	mov	r3,r2
     f24:	e0bffa0b 	ldhu	r2,-24(fp)
     f28:	1885883a 	add	r2,r3,r2
     f2c:	113fffcc 	andi	r4,r2,65535
     f30:	e17ffb0b 	ldhu	r5,-20(fp)
     f34:	e1fffe03 	ldbu	r7,-8(fp)
     f38:	d8000015 	stw	zero,0(sp)
     f3c:	01800804 	movi	r6,32
     f40:	0000b700 	call	b70 <LCD_ShowChar>
     f44:	10803fcc 	andi	r2,r2,255
     f48:	1005003a 	cmpeq	r2,r2,zero
     f4c:	1000151e 	bne	r2,zero,fa4 <LCD_ShowNum+0x12c>
					return 1;
     f50:	00800044 	movi	r2,1
     f54:	e0bfff15 	stw	r2,-4(fp)
     f58:	00001906 	br	fc0 <LCD_ShowNum+0x148>

				continue;
			}else enshow=1;
     f5c:	00800044 	movi	r2,1
     f60:	e0bff905 	stb	r2,-28(fp)

		}
	 	LCD_ShowChar(x+(size/2)*t,y,temp+'0',size,0);
     f64:	e0bffe03 	ldbu	r2,-8(fp)
     f68:	1004d07a 	srli	r2,r2,1
     f6c:	10c03fcc 	andi	r3,r2,255
     f70:	e0bff983 	ldbu	r2,-26(fp)
     f74:	1885383a 	mul	r2,r3,r2
     f78:	1007883a 	mov	r3,r2
     f7c:	e0bffa0b 	ldhu	r2,-24(fp)
     f80:	1885883a 	add	r2,r3,r2
     f84:	113fffcc 	andi	r4,r2,65535
     f88:	e17ffb0b 	ldhu	r5,-20(fp)
     f8c:	e0bff943 	ldbu	r2,-27(fp)
     f90:	10800c04 	addi	r2,r2,48
     f94:	11803fcc 	andi	r6,r2,255
     f98:	e1fffe03 	ldbu	r7,-8(fp)
     f9c:	d8000015 	stw	zero,0(sp)
     fa0:	0000b700 	call	b70 <LCD_ShowChar>
alt_u8 LCD_ShowNum(alt_u16 x,alt_u16 y,alt_u32 num,alt_u8 len,alt_u8 size)
{
	alt_u8 t,temp;
	alt_u8 enshow=0;

	for(t=0;t<len;t++)
     fa4:	e0bff983 	ldbu	r2,-26(fp)
     fa8:	10800044 	addi	r2,r2,1
     fac:	e0bff985 	stb	r2,-26(fp)
     fb0:	e0fff983 	ldbu	r3,-26(fp)
     fb4:	e0bffd03 	ldbu	r2,-12(fp)
     fb8:	18bfbc36 	bltu	r3,r2,eac <LCD_ShowNum+0x34>
			}else enshow=1;

		}
	 	LCD_ShowChar(x+(size/2)*t,y,temp+'0',size,0);
	}
	return 0;
     fbc:	e03fff15 	stw	zero,-4(fp)
     fc0:	e0bfff17 	ldw	r2,-4(fp)
}
     fc4:	e037883a 	mov	sp,fp
     fc8:	dfc00117 	ldw	ra,4(sp)
     fcc:	df000017 	ldw	fp,0(sp)
     fd0:	dec00204 	addi	sp,sp,8
     fd4:	f800283a 	ret

00000fd8 <LCD_ShowString>:
 *			alt_u8 size      : 字体大小 12:1206  16:1608.
 *			alt_u8 *p  : 字符串指针
 *@返回值  :0:正常, 1:显示字符串失败
*******************************************************/
alt_u8 LCD_ShowString(alt_u16 x,alt_u16 y,alt_u8 size,char *p)
{
     fd8:	defff704 	addi	sp,sp,-36
     fdc:	dfc00815 	stw	ra,32(sp)
     fe0:	df000715 	stw	fp,28(sp)
     fe4:	df000704 	addi	fp,sp,28
     fe8:	e1fffe15 	stw	r7,-8(fp)
     fec:	e13ffb0d 	sth	r4,-20(fp)
     ff0:	e17ffc0d 	sth	r5,-16(fp)
     ff4:	e1bffd05 	stb	r6,-12(fp)
	alt_u16 MAX_CHAR_POSX =  lcddev.x_len - size;
     ff8:	008002b4 	movhi	r2,10
     ffc:	10b8e084 	addi	r2,r2,-7294
    1000:	10c0000b 	ldhu	r3,0(r2)
    1004:	e0bffd03 	ldbu	r2,-12(fp)
    1008:	1885c83a 	sub	r2,r3,r2
    100c:	e0bffa8d 	sth	r2,-22(fp)
	alt_u16 MAX_CHAR_POSY =  lcddev.y_len - (size/2);
    1010:	008002b4 	movhi	r2,10
    1014:	10b8e104 	addi	r2,r2,-7292
    1018:	10c0000b 	ldhu	r3,0(r2)
    101c:	e0bffd03 	ldbu	r2,-12(fp)
    1020:	1004d07a 	srli	r2,r2,1
    1024:	10803fcc 	andi	r2,r2,255
    1028:	1885c83a 	sub	r2,r3,r2
    102c:	e0bffa0d 	sth	r2,-24(fp)

	while(*p!='\0')
    1030:	00002706 	br	10d0 <LCD_ShowString+0xf8>
    {
        if(x>MAX_CHAR_POSX){x=0;y+=size;}
    1034:	e0fffb0b 	ldhu	r3,-20(fp)
    1038:	e0bffa8b 	ldhu	r2,-22(fp)
    103c:	10c0052e 	bgeu	r2,r3,1054 <LCD_ShowString+0x7c>
    1040:	e03ffb0d 	sth	zero,-20(fp)
    1044:	e0bffd03 	ldbu	r2,-12(fp)
    1048:	e0fffc0b 	ldhu	r3,-16(fp)
    104c:	1885883a 	add	r2,r3,r2
    1050:	e0bffc0d 	sth	r2,-16(fp)
        if(y>MAX_CHAR_POSY){y=x=0;LCD_Clear(WHITE);}
    1054:	e0fffc0b 	ldhu	r3,-16(fp)
    1058:	e0bffa0b 	ldhu	r2,-24(fp)
    105c:	10c0052e 	bgeu	r2,r3,1074 <LCD_ShowString+0x9c>
    1060:	e03ffb0d 	sth	zero,-20(fp)
    1064:	e0bffb0b 	ldhu	r2,-20(fp)
    1068:	e0bffc0d 	sth	r2,-16(fp)
    106c:	013fffd4 	movui	r4,65535
    1070:	00003640 	call	364 <LCD_Clear>

        if( LCD_ShowChar(x,y,*p,size,0))
    1074:	e13ffb0b 	ldhu	r4,-20(fp)
    1078:	e17ffc0b 	ldhu	r5,-16(fp)
    107c:	e0bffe17 	ldw	r2,-8(fp)
    1080:	10800003 	ldbu	r2,0(r2)
    1084:	11803fcc 	andi	r6,r2,255
    1088:	e1fffd03 	ldbu	r7,-12(fp)
    108c:	d8000015 	stw	zero,0(sp)
    1090:	0000b700 	call	b70 <LCD_ShowChar>
    1094:	10803fcc 	andi	r2,r2,255
    1098:	1005003a 	cmpeq	r2,r2,zero
    109c:	1000031e 	bne	r2,zero,10ac <LCD_ShowString+0xd4>
        	return 1;
    10a0:	00800044 	movi	r2,1
    10a4:	e0bfff15 	stw	r2,-4(fp)
    10a8:	00001106 	br	10f0 <LCD_ShowString+0x118>

        x+=(size/2);
    10ac:	e0bffd03 	ldbu	r2,-12(fp)
    10b0:	1004d07a 	srli	r2,r2,1
    10b4:	10c03fcc 	andi	r3,r2,255
    10b8:	e0bffb0b 	ldhu	r2,-20(fp)
    10bc:	10c5883a 	add	r2,r2,r3
    10c0:	e0bffb0d 	sth	r2,-20(fp)
        p++;
    10c4:	e0bffe17 	ldw	r2,-8(fp)
    10c8:	10800044 	addi	r2,r2,1
    10cc:	e0bffe15 	stw	r2,-8(fp)
alt_u8 LCD_ShowString(alt_u16 x,alt_u16 y,alt_u8 size,char *p)
{
	alt_u16 MAX_CHAR_POSX =  lcddev.x_len - size;
	alt_u16 MAX_CHAR_POSY =  lcddev.y_len - (size/2);

	while(*p!='\0')
    10d0:	e0bffe17 	ldw	r2,-8(fp)
    10d4:	10800003 	ldbu	r2,0(r2)
    10d8:	10803fcc 	andi	r2,r2,255
    10dc:	1080201c 	xori	r2,r2,128
    10e0:	10bfe004 	addi	r2,r2,-128
    10e4:	1004c03a 	cmpne	r2,r2,zero
    10e8:	103fd21e 	bne	r2,zero,1034 <LCD_ShowString+0x5c>
        	return 1;

        x+=(size/2);
        p++;
    }
	return 0;
    10ec:	e03fff15 	stw	zero,-4(fp)
    10f0:	e0bfff17 	ldw	r2,-4(fp)
}
    10f4:	e037883a 	mov	sp,fp
    10f8:	dfc00117 	ldw	ra,4(sp)
    10fc:	df000017 	ldw	fp,0(sp)
    1100:	dec00204 	addi	sp,sp,8
    1104:	f800283a 	ret

00001108 <LCD_ShowChinese>:
 *			char    *p        : 字模数组指针
 *			alt_u8  num       ： 显示第几个字
 *@返回值  :0:正常, 1:画矩形失败
*******************************************************/
alt_u8 LCD_ShowChinese(alt_u16 x,alt_u16 y,alt_u16 size,alt_u8 overlay,alt_u8 num,const unsigned char *p)
{
    1108:	defff304 	addi	sp,sp,-52
    110c:	dfc00c15 	stw	ra,48(sp)
    1110:	df000b15 	stw	fp,44(sp)
    1114:	df000b04 	addi	fp,sp,44
    1118:	e0800217 	ldw	r2,8(fp)
    111c:	e13ff90d 	sth	r4,-28(fp)
    1120:	e17ffa0d 	sth	r5,-24(fp)
    1124:	e1bffb0d 	sth	r6,-20(fp)
    1128:	e1fffc05 	stb	r7,-16(fp)
    112c:	e0bffd05 	stb	r2,-12(fp)
	alt_u8 temp;
	alt_u16 i,j,line_byte,line_bit; //line_byte表示一个汉字一列在数组中几个字节,line_bit表示占多少位
	unsigned char * show ;

	line_byte= (alt_u16)((size+7)/8);//由于取模软件1字节对齐，不足8位按8位算
    1130:	e0bffb0b 	ldhu	r2,-20(fp)
    1134:	108001c4 	addi	r2,r2,7
    1138:	e0bfff15 	stw	r2,-4(fp)
    113c:	e0ffff17 	ldw	r3,-4(fp)
    1140:	1804403a 	cmpge	r2,r3,zero
    1144:	1000031e 	bne	r2,zero,1154 <LCD_ShowChinese+0x4c>
    1148:	e0bfff17 	ldw	r2,-4(fp)
    114c:	108001c4 	addi	r2,r2,7
    1150:	e0bfff15 	stw	r2,-4(fp)
    1154:	e0ffff17 	ldw	r3,-4(fp)
    1158:	1805d0fa 	srai	r2,r3,3
    115c:	e0bff68d 	sth	r2,-38(fp)
	line_bit = line_byte*8;
    1160:	e0bff68b 	ldhu	r2,-38(fp)
    1164:	100490fa 	slli	r2,r2,3
    1168:	e0bff60d 	sth	r2,-40(fp)
	show = (unsigned char*)p;
    116c:	e0800317 	ldw	r2,12(fp)
    1170:	e0bff515 	stw	r2,-44(fp)
	show = show+ num*size*line_byte;
    1174:	e0fffd03 	ldbu	r3,-12(fp)
    1178:	e0bffb0b 	ldhu	r2,-20(fp)
    117c:	1887383a 	mul	r3,r3,r2
    1180:	e0bff68b 	ldhu	r2,-38(fp)
    1184:	1885383a 	mul	r2,r3,r2
    1188:	1007883a 	mov	r3,r2
    118c:	e0bff517 	ldw	r2,-44(fp)
    1190:	10c5883a 	add	r2,r2,r3
    1194:	e0bff515 	stw	r2,-44(fp)
	if( x>(lcddev.x_len - size) || y >(lcddev.y_len - size) )
    1198:	e13ff90b 	ldhu	r4,-28(fp)
    119c:	008002b4 	movhi	r2,10
    11a0:	10b8e084 	addi	r2,r2,-7294
    11a4:	1080000b 	ldhu	r2,0(r2)
    11a8:	10ffffcc 	andi	r3,r2,65535
    11ac:	e0bffb0b 	ldhu	r2,-20(fp)
    11b0:	1885c83a 	sub	r2,r3,r2
    11b4:	11000816 	blt	r2,r4,11d8 <LCD_ShowChinese+0xd0>
    11b8:	e13ffa0b 	ldhu	r4,-24(fp)
    11bc:	008002b4 	movhi	r2,10
    11c0:	10b8e104 	addi	r2,r2,-7292
    11c4:	1080000b 	ldhu	r2,0(r2)
    11c8:	10ffffcc 	andi	r3,r2,65535
    11cc:	e0bffb0b 	ldhu	r2,-20(fp)
    11d0:	1885c83a 	sub	r2,r3,r2
    11d4:	1100030e 	bge	r2,r4,11e4 <LCD_ShowChinese+0xdc>
		return 1;
    11d8:	00800044 	movi	r2,1
    11dc:	e0bffe15 	stw	r2,-8(fp)
    11e0:	00004706 	br	1300 <LCD_ShowChinese+0x1f8>

	//为了提高显示效率，显示时，取模软件在最后一字节自动填充的0不考虑，只显示有价值的点
	for(i=0;i<size;i++)
    11e4:	e03ff78d 	sth	zero,-34(fp)
    11e8:	00004106 	br	12f0 <LCD_ShowChinese+0x1e8>
	{
		for(j=0;j<line_bit;j++)
    11ec:	e03ff70d 	sth	zero,-36(fp)
    11f0:	00003906 	br	12d8 <LCD_ShowChinese+0x1d0>
		{
			if(j%8 == 0)
    11f4:	e0bff70b 	ldhu	r2,-36(fp)
    11f8:	108001cc 	andi	r2,r2,7
    11fc:	1004c03a 	cmpne	r2,r2,zero
    1200:	1000041e 	bne	r2,zero,1214 <LCD_ShowChinese+0x10c>
				temp = *show;
    1204:	e0bff517 	ldw	r2,-44(fp)
    1208:	10800003 	ldbu	r2,0(r2)
    120c:	e0bff805 	stb	r2,-32(fp)
    1210:	00000806 	br	1234 <LCD_ShowChinese+0x12c>
			else if( ((j+1)%8)== 0 )
    1214:	e0bff70b 	ldhu	r2,-36(fp)
    1218:	10800044 	addi	r2,r2,1
    121c:	108001cc 	andi	r2,r2,7
    1220:	1004c03a 	cmpne	r2,r2,zero
    1224:	1000031e 	bne	r2,zero,1234 <LCD_ShowChinese+0x12c>
				show++;
    1228:	e0bff517 	ldw	r2,-44(fp)
    122c:	10800044 	addi	r2,r2,1
    1230:	e0bff515 	stw	r2,-44(fp)

			if(j<size)//为了提高显示效率，显示时，取模软件在最后一字节自动填充的0不考虑，只显示有价值的点
    1234:	e0fff70b 	ldhu	r3,-36(fp)
    1238:	e0bffb0b 	ldhu	r2,-20(fp)
    123c:	1880232e 	bgeu	r3,r2,12cc <LCD_ShowChinese+0x1c4>
			{
				if( temp&0x80 )
    1240:	e0bff803 	ldbu	r2,-32(fp)
    1244:	10803fcc 	andi	r2,r2,255
    1248:	1080201c 	xori	r2,r2,128
    124c:	10bfe004 	addi	r2,r2,-128
    1250:	1004403a 	cmpge	r2,r2,zero
    1254:	10000c1e 	bne	r2,zero,1288 <LCD_ShowChinese+0x180>
					LCD_DrawPoint(x+i,y+j,POINT_COLOR);//按列取模先加y
    1258:	e0fff90b 	ldhu	r3,-28(fp)
    125c:	e0bff78b 	ldhu	r2,-34(fp)
    1260:	1885883a 	add	r2,r3,r2
    1264:	113fffcc 	andi	r4,r2,65535
    1268:	e0fffa0b 	ldhu	r3,-24(fp)
    126c:	e0bff70b 	ldhu	r2,-36(fp)
    1270:	1885883a 	add	r2,r3,r2
    1274:	117fffcc 	andi	r5,r2,65535
    1278:	d0a00c0b 	ldhu	r2,-32720(gp)
    127c:	11bfffcc 	andi	r6,r2,65535
    1280:	00002b80 	call	2b8 <LCD_DrawPoint>
    1284:	00000e06 	br	12c0 <LCD_ShowChinese+0x1b8>
				else if(overlay == 0)
    1288:	e0bffc03 	ldbu	r2,-16(fp)
    128c:	1004c03a 	cmpne	r2,r2,zero
    1290:	10000b1e 	bne	r2,zero,12c0 <LCD_ShowChinese+0x1b8>
					LCD_DrawPoint(x+i,y+j,BACK_COLOR);//不叠加显示就用背景色打点
    1294:	e0fff90b 	ldhu	r3,-28(fp)
    1298:	e0bff78b 	ldhu	r2,-34(fp)
    129c:	1885883a 	add	r2,r3,r2
    12a0:	113fffcc 	andi	r4,r2,65535
    12a4:	e0fffa0b 	ldhu	r3,-24(fp)
    12a8:	e0bff70b 	ldhu	r2,-36(fp)
    12ac:	1885883a 	add	r2,r3,r2
    12b0:	117fffcc 	andi	r5,r2,65535
    12b4:	d0a0000b 	ldhu	r2,-32768(gp)
    12b8:	11bfffcc 	andi	r6,r2,65535
    12bc:	00002b80 	call	2b8 <LCD_DrawPoint>

				temp = temp<<1;
    12c0:	e0bff803 	ldbu	r2,-32(fp)
    12c4:	1085883a 	add	r2,r2,r2
    12c8:	e0bff805 	stb	r2,-32(fp)
		return 1;

	//为了提高显示效率，显示时，取模软件在最后一字节自动填充的0不考虑，只显示有价值的点
	for(i=0;i<size;i++)
	{
		for(j=0;j<line_bit;j++)
    12cc:	e0bff70b 	ldhu	r2,-36(fp)
    12d0:	10800044 	addi	r2,r2,1
    12d4:	e0bff70d 	sth	r2,-36(fp)
    12d8:	e0fff70b 	ldhu	r3,-36(fp)
    12dc:	e0bff60b 	ldhu	r2,-40(fp)
    12e0:	18bfc436 	bltu	r3,r2,11f4 <LCD_ShowChinese+0xec>
	show = show+ num*size*line_byte;
	if( x>(lcddev.x_len - size) || y >(lcddev.y_len - size) )
		return 1;

	//为了提高显示效率，显示时，取模软件在最后一字节自动填充的0不考虑，只显示有价值的点
	for(i=0;i<size;i++)
    12e4:	e0bff78b 	ldhu	r2,-34(fp)
    12e8:	10800044 	addi	r2,r2,1
    12ec:	e0bff78d 	sth	r2,-34(fp)
    12f0:	e0fff78b 	ldhu	r3,-34(fp)
    12f4:	e0bffb0b 	ldhu	r2,-20(fp)
    12f8:	18bfbc36 	bltu	r3,r2,11ec <LCD_ShowChinese+0xe4>

				temp = temp<<1;
			}
		}
	}
	return 0;
    12fc:	e03ffe15 	stw	zero,-8(fp)
    1300:	e0bffe17 	ldw	r2,-8(fp)
}
    1304:	e037883a 	mov	sp,fp
    1308:	dfc00117 	ldw	ra,4(sp)
    130c:	df000017 	ldw	fp,0(sp)
    1310:	dec00204 	addi	sp,sp,8
    1314:	f800283a 	ret

00001318 <LCD_MoveChinese>:
 *			char    *p        : 字模数组指针
 *
 *@返回值  :0:正常, 1:画矩形失败
*******************************************************/
alt_u8 LCD_MoveChinese(alt_u16 x,alt_u16 y,alt_u16 size,alt_u16 total,alt_u16 num,const unsigned char *p)
{
    1318:	defff304 	addi	sp,sp,-52
    131c:	dfc00c15 	stw	ra,48(sp)
    1320:	df000b15 	stw	fp,44(sp)
    1324:	df000b04 	addi	fp,sp,44
    1328:	e0800217 	ldw	r2,8(fp)
    132c:	e13ff90d 	sth	r4,-28(fp)
    1330:	e17ffa0d 	sth	r5,-24(fp)
    1334:	e1bffb0d 	sth	r6,-20(fp)
    1338:	e1fffc0d 	sth	r7,-16(fp)
    133c:	e0bffd0d 	sth	r2,-12(fp)
	alt_u8 temp;
	alt_u16 i,j,line_byte,line_bit; //v_byte表示一个汉字一列在数组中几个字节

	unsigned char * show ;

	line_byte= (alt_u16)((size+7)/8);//垂直方向几个Byte，不足一个字节按一个字节计算
    1340:	e0bffb0b 	ldhu	r2,-20(fp)
    1344:	108001c4 	addi	r2,r2,7
    1348:	e0bfff15 	stw	r2,-4(fp)
    134c:	e0ffff17 	ldw	r3,-4(fp)
    1350:	1804403a 	cmpge	r2,r3,zero
    1354:	1000031e 	bne	r2,zero,1364 <LCD_MoveChinese+0x4c>
    1358:	e0bfff17 	ldw	r2,-4(fp)
    135c:	108001c4 	addi	r2,r2,7
    1360:	e0bfff15 	stw	r2,-4(fp)
    1364:	e0ffff17 	ldw	r3,-4(fp)
    1368:	1805d0fa 	srai	r2,r3,3
    136c:	e0bff68d 	sth	r2,-38(fp)
	line_bit = line_byte*8;//垂直方向几个bit,不足一个字节按一个字节计算
    1370:	e0bff68b 	ldhu	r2,-38(fp)
    1374:	100490fa 	slli	r2,r2,3
    1378:	e0bff60d 	sth	r2,-40(fp)
	show = (unsigned char*)p;
    137c:	e0800317 	ldw	r2,12(fp)
    1380:	e0bff515 	stw	r2,-44(fp)
	num = (num % (total*size));
    1384:	e13ffd0b 	ldhu	r4,-12(fp)
    1388:	e0fffc0b 	ldhu	r3,-16(fp)
    138c:	e0bffb0b 	ldhu	r2,-20(fp)
    1390:	188b383a 	mul	r5,r3,r2
    1394:	0002e800 	call	2e80 <__modsi3>
    1398:	e0bffd0d 	sth	r2,-12(fp)
	show = show+ num*line_byte;
    139c:	e0fffd0b 	ldhu	r3,-12(fp)
    13a0:	e0bff68b 	ldhu	r2,-38(fp)
    13a4:	1885383a 	mul	r2,r3,r2
    13a8:	1007883a 	mov	r3,r2
    13ac:	e0bff517 	ldw	r2,-44(fp)
    13b0:	10c5883a 	add	r2,r2,r3
    13b4:	e0bff515 	stw	r2,-44(fp)

	if( x>(lcddev.x_len - size) || y >(lcddev.y_len - size) )
    13b8:	e13ff90b 	ldhu	r4,-28(fp)
    13bc:	008002b4 	movhi	r2,10
    13c0:	10b8e084 	addi	r2,r2,-7294
    13c4:	1080000b 	ldhu	r2,0(r2)
    13c8:	10ffffcc 	andi	r3,r2,65535
    13cc:	e0bffb0b 	ldhu	r2,-20(fp)
    13d0:	1885c83a 	sub	r2,r3,r2
    13d4:	11000816 	blt	r2,r4,13f8 <LCD_MoveChinese+0xe0>
    13d8:	e13ffa0b 	ldhu	r4,-24(fp)
    13dc:	008002b4 	movhi	r2,10
    13e0:	10b8e104 	addi	r2,r2,-7292
    13e4:	1080000b 	ldhu	r2,0(r2)
    13e8:	10ffffcc 	andi	r3,r2,65535
    13ec:	e0bffb0b 	ldhu	r2,-20(fp)
    13f0:	1885c83a 	sub	r2,r3,r2
    13f4:	1100030e 	bge	r2,r4,1404 <LCD_MoveChinese+0xec>
		return 1;
    13f8:	00800044 	movi	r2,1
    13fc:	e0bffe15 	stw	r2,-8(fp)
    1400:	00005206 	br	154c <LCD_MoveChinese+0x234>

	//为了提高显示效率，显示时，取模软件在最后一字节自动填充的0不考虑，只显示有价值的点
	for(i=0;i<size*total;i++)
    1404:	e03ff78d 	sth	zero,-34(fp)
    1408:	00004a06 	br	1534 <LCD_MoveChinese+0x21c>
	{
		for(j=0;j<line_bit;j++)
    140c:	e03ff70d 	sth	zero,-36(fp)
    1410:	00004206 	br	151c <LCD_MoveChinese+0x204>
		{
			if(j%8 == 0)
    1414:	e0bff70b 	ldhu	r2,-36(fp)
    1418:	108001cc 	andi	r2,r2,7
    141c:	1004c03a 	cmpne	r2,r2,zero
    1420:	1000041e 	bne	r2,zero,1434 <LCD_MoveChinese+0x11c>
				temp = *show;
    1424:	e0bff517 	ldw	r2,-44(fp)
    1428:	10800003 	ldbu	r2,0(r2)
    142c:	e0bff805 	stb	r2,-32(fp)
    1430:	00000806 	br	1454 <LCD_MoveChinese+0x13c>
			else if( ((j+1)%8)== 0 )
    1434:	e0bff70b 	ldhu	r2,-36(fp)
    1438:	10800044 	addi	r2,r2,1
    143c:	108001cc 	andi	r2,r2,7
    1440:	1004c03a 	cmpne	r2,r2,zero
    1444:	1000031e 	bne	r2,zero,1454 <LCD_MoveChinese+0x13c>
				show++;
    1448:	e0bff517 	ldw	r2,-44(fp)
    144c:	10800044 	addi	r2,r2,1
    1450:	e0bff515 	stw	r2,-44(fp)

			if(show >= (unsigned char*)p + line_byte*size*total)
    1454:	e0fff68b 	ldhu	r3,-38(fp)
    1458:	e0bffb0b 	ldhu	r2,-20(fp)
    145c:	1887383a 	mul	r3,r3,r2
    1460:	e0bffc0b 	ldhu	r2,-16(fp)
    1464:	1885383a 	mul	r2,r3,r2
    1468:	1007883a 	mov	r3,r2
    146c:	e0800317 	ldw	r2,12(fp)
    1470:	1887883a 	add	r3,r3,r2
    1474:	e0bff517 	ldw	r2,-44(fp)
    1478:	10c00236 	bltu	r2,r3,1484 <LCD_MoveChinese+0x16c>
				show =(unsigned char*)p;
    147c:	e0800317 	ldw	r2,12(fp)
    1480:	e0bff515 	stw	r2,-44(fp)

			if(j<size)//为了提高显示效率，显示时，取模软件在最后一字节自动填充的0不考虑，只显示有价值的点
    1484:	e0fff70b 	ldhu	r3,-36(fp)
    1488:	e0bffb0b 	ldhu	r2,-20(fp)
    148c:	1880202e 	bgeu	r3,r2,1510 <LCD_MoveChinese+0x1f8>
			{
				if( temp&0x80 )
    1490:	e0bff803 	ldbu	r2,-32(fp)
    1494:	10803fcc 	andi	r2,r2,255
    1498:	1080201c 	xori	r2,r2,128
    149c:	10bfe004 	addi	r2,r2,-128
    14a0:	1004403a 	cmpge	r2,r2,zero
    14a4:	10000c1e 	bne	r2,zero,14d8 <LCD_MoveChinese+0x1c0>
					LCD_DrawPoint(x+i,y+j,POINT_COLOR);//按列取模先加y
    14a8:	e0fff90b 	ldhu	r3,-28(fp)
    14ac:	e0bff78b 	ldhu	r2,-34(fp)
    14b0:	1885883a 	add	r2,r3,r2
    14b4:	113fffcc 	andi	r4,r2,65535
    14b8:	e0fffa0b 	ldhu	r3,-24(fp)
    14bc:	e0bff70b 	ldhu	r2,-36(fp)
    14c0:	1885883a 	add	r2,r3,r2
    14c4:	117fffcc 	andi	r5,r2,65535
    14c8:	d0a00c0b 	ldhu	r2,-32720(gp)
    14cc:	11bfffcc 	andi	r6,r2,65535
    14d0:	00002b80 	call	2b8 <LCD_DrawPoint>
    14d4:	00000b06 	br	1504 <LCD_MoveChinese+0x1ec>
				else
					LCD_DrawPoint(x+i,y+j,BACK_COLOR);//不叠加显示就用背景色打点
    14d8:	e0fff90b 	ldhu	r3,-28(fp)
    14dc:	e0bff78b 	ldhu	r2,-34(fp)
    14e0:	1885883a 	add	r2,r3,r2
    14e4:	113fffcc 	andi	r4,r2,65535
    14e8:	e0fffa0b 	ldhu	r3,-24(fp)
    14ec:	e0bff70b 	ldhu	r2,-36(fp)
    14f0:	1885883a 	add	r2,r3,r2
    14f4:	117fffcc 	andi	r5,r2,65535
    14f8:	d0a0000b 	ldhu	r2,-32768(gp)
    14fc:	11bfffcc 	andi	r6,r2,65535
    1500:	00002b80 	call	2b8 <LCD_DrawPoint>

				temp = temp<<1;
    1504:	e0bff803 	ldbu	r2,-32(fp)
    1508:	1085883a 	add	r2,r2,r2
    150c:	e0bff805 	stb	r2,-32(fp)
		return 1;

	//为了提高显示效率，显示时，取模软件在最后一字节自动填充的0不考虑，只显示有价值的点
	for(i=0;i<size*total;i++)
	{
		for(j=0;j<line_bit;j++)
    1510:	e0bff70b 	ldhu	r2,-36(fp)
    1514:	10800044 	addi	r2,r2,1
    1518:	e0bff70d 	sth	r2,-36(fp)
    151c:	e0fff70b 	ldhu	r3,-36(fp)
    1520:	e0bff60b 	ldhu	r2,-40(fp)
    1524:	18bfbb36 	bltu	r3,r2,1414 <LCD_MoveChinese+0xfc>

	if( x>(lcddev.x_len - size) || y >(lcddev.y_len - size) )
		return 1;

	//为了提高显示效率，显示时，取模软件在最后一字节自动填充的0不考虑，只显示有价值的点
	for(i=0;i<size*total;i++)
    1528:	e0bff78b 	ldhu	r2,-34(fp)
    152c:	10800044 	addi	r2,r2,1
    1530:	e0bff78d 	sth	r2,-34(fp)
    1534:	e13ff78b 	ldhu	r4,-34(fp)
    1538:	e0fffb0b 	ldhu	r3,-20(fp)
    153c:	e0bffc0b 	ldhu	r2,-16(fp)
    1540:	1885383a 	mul	r2,r3,r2
    1544:	20bfb116 	blt	r4,r2,140c <LCD_MoveChinese+0xf4>

				temp = temp<<1;
			}
		}
	}
	return 0;
    1548:	e03ffe15 	stw	zero,-8(fp)
    154c:	e0bffe17 	ldw	r2,-8(fp)
}
    1550:	e037883a 	mov	sp,fp
    1554:	dfc00117 	ldw	ra,4(sp)
    1558:	df000017 	ldw	fp,0(sp)
    155c:	dec00204 	addi	sp,sp,8
    1560:	f800283a 	ret

00001564 <Equation_Calculate>:
	0,  //显示模式，不叠加显示
	0,  //输出字符清零
};

alt_u32 Equation_Calculate(alt_u8 x, alt_u8 n)
{
    1564:	defffc04 	addi	sp,sp,-16
    1568:	df000315 	stw	fp,12(sp)
    156c:	df000304 	addi	fp,sp,12
    1570:	e13ffe05 	stb	r4,-8(fp)
    1574:	e17fff05 	stb	r5,-4(fp)
	alt_u32 dat=1;
    1578:	00800044 	movi	r2,1
    157c:	e0bffd15 	stw	r2,-12(fp)
	while(n--)	dat *= x;  //n个x相乘
    1580:	00000406 	br	1594 <Equation_Calculate+0x30>
    1584:	e0bffe03 	ldbu	r2,-8(fp)
    1588:	e0fffd17 	ldw	r3,-12(fp)
    158c:	1885383a 	mul	r2,r3,r2
    1590:	e0bffd15 	stw	r2,-12(fp)
    1594:	e0bfff03 	ldbu	r2,-4(fp)
    1598:	10bfffc4 	addi	r2,r2,-1
    159c:	e0bfff05 	stb	r2,-4(fp)
    15a0:	e0bfff03 	ldbu	r2,-4(fp)
    15a4:	10803fd8 	cmpnei	r2,r2,255
    15a8:	103ff61e 	bne	r2,zero,1584 <Equation_Calculate+0x20>
	return dat;
    15ac:	e0bffd17 	ldw	r2,-12(fp)
}
    15b0:	e037883a 	mov	sp,fp
    15b4:	df000017 	ldw	fp,0(sp)
    15b8:	dec00104 	addi	sp,sp,4
    15bc:	f800283a 	ret

000015c0 <Array_To_String>:
  * 		  strout: 字符串输出缓存
  * @返回值   : 字符串输出指针
  *****************************************************************************
**/
alt_u8 *Array_To_String(alt_u32 arr, alt_u8* strout)
{
    15c0:	defffb04 	addi	sp,sp,-20
    15c4:	dfc00415 	stw	ra,16(sp)
    15c8:	df000315 	stw	fp,12(sp)
    15cc:	df000304 	addi	fp,sp,12
    15d0:	e13ffe15 	stw	r4,-8(fp)
    15d4:	e17fff15 	stw	r5,-4(fp)
	alt_u8 tmp=0,i=0;
    15d8:	e03ffd85 	stb	zero,-10(fp)
    15dc:	e03ffd45 	stb	zero,-11(fp)
	alt_u8 rec=0;
    15e0:	e03ffd05 	stb	zero,-12(fp)

	for(i = 0;i < 10;i++)
    15e4:	e03ffd45 	stb	zero,-11(fp)
    15e8:	00002306 	br	1678 <Array_To_String+0xb8>
	{
		tmp = (arr / (Equation_Calculate(10, 10-i-1))) % 10;    //取得数字的最高位
    15ec:	e0fffd43 	ldbu	r3,-11(fp)
    15f0:	00800244 	movi	r2,9
    15f4:	10c5c83a 	sub	r2,r2,r3
    15f8:	11403fcc 	andi	r5,r2,255
    15fc:	01000284 	movi	r4,10
    1600:	00015640 	call	1564 <Equation_Calculate>
    1604:	100b883a 	mov	r5,r2
    1608:	e13ffe17 	ldw	r4,-8(fp)
    160c:	0002ee00 	call	2ee0 <__udivsi3>
    1610:	1009883a 	mov	r4,r2
    1614:	01400284 	movi	r5,10
    1618:	0002ee80 	call	2ee8 <__umodsi3>
    161c:	e0bffd85 	stb	r2,-10(fp)
		if(rec==0 && i<9)  //最后一位不管是不是0都转换
    1620:	e0bffd03 	ldbu	r2,-12(fp)
    1624:	1004c03a 	cmpne	r2,r2,zero
    1628:	1000081e 	bne	r2,zero,164c <Array_To_String+0x8c>
    162c:	e0bffd43 	ldbu	r2,-11(fp)
    1630:	10800268 	cmpgeui	r2,r2,9
    1634:	1000051e 	bne	r2,zero,164c <Array_To_String+0x8c>
		{
			if(tmp == 0)	continue;  //高位为0不转换
    1638:	e0bffd83 	ldbu	r2,-10(fp)
    163c:	1005003a 	cmpeq	r2,r2,zero
    1640:	10000a1e 	bne	r2,zero,166c <Array_To_String+0xac>
			else  rec = 1;  //不需要转换了
    1644:	00800044 	movi	r2,1
    1648:	e0bffd05 	stb	r2,-12(fp)
		}
		*strout = tmp + 0x30;
    164c:	e0bffd83 	ldbu	r2,-10(fp)
    1650:	10800c04 	addi	r2,r2,48
    1654:	1007883a 	mov	r3,r2
    1658:	e0bfff17 	ldw	r2,-4(fp)
    165c:	10c00005 	stb	r3,0(r2)
		strout++;
    1660:	e0bfff17 	ldw	r2,-4(fp)
    1664:	10800044 	addi	r2,r2,1
    1668:	e0bfff15 	stw	r2,-4(fp)
alt_u8 *Array_To_String(alt_u32 arr, alt_u8* strout)
{
	alt_u8 tmp=0,i=0;
	alt_u8 rec=0;

	for(i = 0;i < 10;i++)
    166c:	e0bffd43 	ldbu	r2,-11(fp)
    1670:	10800044 	addi	r2,r2,1
    1674:	e0bffd45 	stb	r2,-11(fp)
    1678:	e0bffd43 	ldbu	r2,-11(fp)
    167c:	108002b0 	cmpltui	r2,r2,10
    1680:	103fda1e 	bne	r2,zero,15ec <Array_To_String+0x2c>
			else  rec = 1;  //不需要转换了
		}
		*strout = tmp + 0x30;
		strout++;
	}
	*strout = '\0';	//加入结束符
    1684:	e0bfff17 	ldw	r2,-4(fp)
    1688:	10000005 	stb	zero,0(r2)

	return strout;
    168c:	e0bfff17 	ldw	r2,-4(fp)
}
    1690:	e037883a 	mov	sp,fp
    1694:	dfc00117 	ldw	ra,4(sp)
    1698:	df000017 	ldw	fp,0(sp)
    169c:	dec00204 	addi	sp,sp,8
    16a0:	f800283a 	ret

000016a4 <Get_NumLen>:
  * @返回值   : 数值长度，默认最大返回10位
  *****************************************************************************
**/
#define MAX_NUM_LEN          10    //最大返回位数
alt_u8 Get_NumLen(alt_u32 Num)
{
    16a4:	defffb04 	addi	sp,sp,-20
    16a8:	dfc00415 	stw	ra,16(sp)
    16ac:	df000315 	stw	fp,12(sp)
    16b0:	df000304 	addi	fp,sp,12
    16b4:	e13ffe15 	stw	r4,-8(fp)
	alt_u8 i=0;
    16b8:	e03ffd45 	stb	zero,-11(fp)
	alt_u8 tmp=0;
    16bc:	e03ffd05 	stb	zero,-12(fp)

	i = MAX_NUM_LEN - 1;    //得到返回位数
    16c0:	00800244 	movi	r2,9
    16c4:	e0bffd45 	stb	r2,-11(fp)
	while(1)
	{
		tmp = (Num/Equation_Calculate(10, i)) % 10;    //得到位数
    16c8:	e17ffd43 	ldbu	r5,-11(fp)
    16cc:	01000284 	movi	r4,10
    16d0:	00015640 	call	1564 <Equation_Calculate>
    16d4:	100b883a 	mov	r5,r2
    16d8:	e13ffe17 	ldw	r4,-8(fp)
    16dc:	0002ee00 	call	2ee0 <__udivsi3>
    16e0:	1009883a 	mov	r4,r2
    16e4:	01400284 	movi	r5,10
    16e8:	0002ee80 	call	2ee8 <__umodsi3>
    16ec:	e0bffd05 	stb	r2,-12(fp)
		if(tmp || i==0)
    16f0:	e0bffd03 	ldbu	r2,-12(fp)
    16f4:	1004c03a 	cmpne	r2,r2,zero
    16f8:	1000071e 	bne	r2,zero,1718 <Get_NumLen+0x74>
    16fc:	e0bffd43 	ldbu	r2,-11(fp)
    1700:	1005003a 	cmpeq	r2,r2,zero
    1704:	1000041e 	bne	r2,zero,1718 <Get_NumLen+0x74>
			break;    //完成
		i--;
    1708:	e0bffd43 	ldbu	r2,-11(fp)
    170c:	10bfffc4 	addi	r2,r2,-1
    1710:	e0bffd45 	stb	r2,-11(fp)
	}
    1714:	003fec06 	br	16c8 <Get_NumLen+0x24>
	     if(i)    return i+1;    //返回数值位数
    1718:	e0bffd43 	ldbu	r2,-11(fp)
    171c:	1005003a 	cmpeq	r2,r2,zero
    1720:	1000051e 	bne	r2,zero,1738 <Get_NumLen+0x94>
    1724:	e0bffd43 	ldbu	r2,-11(fp)
    1728:	10800044 	addi	r2,r2,1
    172c:	10803fcc 	andi	r2,r2,255
    1730:	e0bfff15 	stw	r2,-4(fp)
    1734:	00000706 	br	1754 <Get_NumLen+0xb0>
	else if(tmp)  return 1;    //输入的数值只有一位
    1738:	e0bffd03 	ldbu	r2,-12(fp)
    173c:	1005003a 	cmpeq	r2,r2,zero
    1740:	1000031e 	bne	r2,zero,1750 <Get_NumLen+0xac>
    1744:	00800044 	movi	r2,1
    1748:	e0bfff15 	stw	r2,-4(fp)
    174c:	00000106 	br	1754 <Get_NumLen+0xb0>
	else          return 0;    //输入的是0
    1750:	e03fff15 	stw	zero,-4(fp)
    1754:	e0bfff17 	ldw	r2,-4(fp)
}
    1758:	e037883a 	mov	sp,fp
    175c:	dfc00117 	ldw	ra,4(sp)
    1760:	df000017 	ldw	fp,0(sp)
    1764:	dec00204 	addi	sp,sp,8
    1768:	f800283a 	ret

0000176c <_printfch>:
  *
  * @返回值   : none
  *****************************************************************************
**/
void _printfch(_Typedef_lcdprintf* lcd_ch, const char ch)
{
    176c:	defffb04 	addi	sp,sp,-20
    1770:	dfc00415 	stw	ra,16(sp)
    1774:	df000315 	stw	fp,12(sp)
    1778:	df000304 	addi	fp,sp,12
    177c:	e13ffe15 	stw	r4,-8(fp)
    1780:	e17fff05 	stb	r5,-4(fp)
	if(ch == '\r')  //LF
    1784:	e0bfff07 	ldb	r2,-4(fp)
    1788:	10800358 	cmpnei	r2,r2,13
    178c:	1000131e 	bne	r2,zero,17dc <_printfch+0x70>
	{
		lcd_ch->cursorx  = 0;
    1790:	e0bffe17 	ldw	r2,-8(fp)
    1794:	1000000d 	sth	zero,0(r2)
		lcd_ch->cursory += ASCII_HEIGHT;
    1798:	e0bffe17 	ldw	r2,-8(fp)
    179c:	1080008b 	ldhu	r2,2(r2)
    17a0:	10800404 	addi	r2,r2,16
    17a4:	1007883a 	mov	r3,r2
    17a8:	e0bffe17 	ldw	r2,-8(fp)
    17ac:	10c0008d 	sth	r3,2(r2)
		if(lcd_ch->cursory >= lcddev.y_len)
    17b0:	e0bffe17 	ldw	r2,-8(fp)
    17b4:	10c0008b 	ldhu	r3,2(r2)
    17b8:	008002b4 	movhi	r2,10
    17bc:	10b8e104 	addi	r2,r2,-7292
    17c0:	1080000b 	ldhu	r2,0(r2)
    17c4:	18ffffcc 	andi	r3,r3,65535
    17c8:	10bfffcc 	andi	r2,r2,65535
    17cc:	18804236 	bltu	r3,r2,18d8 <_printfch+0x16c>
			lcd_ch->cursory = 0;
    17d0:	e0bffe17 	ldw	r2,-8(fp)
    17d4:	1000008d 	sth	zero,2(r2)
    17d8:	00003f06 	br	18d8 <_printfch+0x16c>
	}
	else if(ch == '\n')  //CR
    17dc:	e0bfff07 	ldb	r2,-4(fp)
    17e0:	10800298 	cmpnei	r2,r2,10
    17e4:	1000171e 	bne	r2,zero,1844 <_printfch+0xd8>
	{
		lcd_ch->cursorx  = lcd_ch->cursorx0 - ASCII_WIDTH;
    17e8:	e0bffe17 	ldw	r2,-8(fp)
    17ec:	1080010b 	ldhu	r2,4(r2)
    17f0:	10bffe04 	addi	r2,r2,-8
    17f4:	1007883a 	mov	r3,r2
    17f8:	e0bffe17 	ldw	r2,-8(fp)
    17fc:	10c0000d 	sth	r3,0(r2)
		lcd_ch->cursory += ASCII_HEIGHT;
    1800:	e0bffe17 	ldw	r2,-8(fp)
    1804:	1080008b 	ldhu	r2,2(r2)
    1808:	10800404 	addi	r2,r2,16
    180c:	1007883a 	mov	r3,r2
    1810:	e0bffe17 	ldw	r2,-8(fp)
    1814:	10c0008d 	sth	r3,2(r2)
		if(lcd_ch->cursory >= lcddev.y_len)
    1818:	e0bffe17 	ldw	r2,-8(fp)
    181c:	10c0008b 	ldhu	r3,2(r2)
    1820:	008002b4 	movhi	r2,10
    1824:	10b8e104 	addi	r2,r2,-7292
    1828:	1080000b 	ldhu	r2,0(r2)
    182c:	18ffffcc 	andi	r3,r3,65535
    1830:	10bfffcc 	andi	r2,r2,65535
    1834:	18802836 	bltu	r3,r2,18d8 <_printfch+0x16c>
			lcd_ch->cursory = 0;
    1838:	e0bffe17 	ldw	r2,-8(fp)
    183c:	1000008d 	sth	zero,2(r2)
    1840:	00002506 	br	18d8 <_printfch+0x16c>
	}
	else if(ch == '\t')  //Tab
    1844:	e0bfff07 	ldb	r2,-4(fp)
    1848:	10800258 	cmpnei	r2,r2,9
    184c:	1000111e 	bne	r2,zero,1894 <_printfch+0x128>
	{
		lcd_ch->cursorx += (ASCII_WIDTH * 3);  //默认4个字符宽度
    1850:	e0bffe17 	ldw	r2,-8(fp)
    1854:	1080000b 	ldhu	r2,0(r2)
    1858:	10800604 	addi	r2,r2,24
    185c:	1007883a 	mov	r3,r2
    1860:	e0bffe17 	ldw	r2,-8(fp)
    1864:	10c0000d 	sth	r3,0(r2)
		if(lcd_ch->cursorx >= lcddev.x_len)  lcd_ch->cursorx = 0;
    1868:	e0bffe17 	ldw	r2,-8(fp)
    186c:	10c0000b 	ldhu	r3,0(r2)
    1870:	008002b4 	movhi	r2,10
    1874:	10b8e084 	addi	r2,r2,-7294
    1878:	1080000b 	ldhu	r2,0(r2)
    187c:	18ffffcc 	andi	r3,r3,65535
    1880:	10bfffcc 	andi	r2,r2,65535
    1884:	18801436 	bltu	r3,r2,18d8 <_printfch+0x16c>
    1888:	e0bffe17 	ldw	r2,-8(fp)
    188c:	1000000d 	sth	zero,0(r2)
    1890:	00001106 	br	18d8 <_printfch+0x16c>
	}
	else  //en
	{
		LCD_ShowChar(lcd_ch->cursorx, lcd_ch->cursory,ch,16,0);
    1894:	e0bffe17 	ldw	r2,-8(fp)
    1898:	1080000b 	ldhu	r2,0(r2)
    189c:	113fffcc 	andi	r4,r2,65535
    18a0:	e0bffe17 	ldw	r2,-8(fp)
    18a4:	1080008b 	ldhu	r2,2(r2)
    18a8:	117fffcc 	andi	r5,r2,65535
    18ac:	e0bfff03 	ldbu	r2,-4(fp)
    18b0:	11803fcc 	andi	r6,r2,255
    18b4:	d8000015 	stw	zero,0(sp)
    18b8:	01c00404 	movi	r7,16
    18bc:	0000b700 	call	b70 <LCD_ShowChar>
		lcd_ch->charcnt++;
    18c0:	e0bffe17 	ldw	r2,-8(fp)
    18c4:	10800343 	ldbu	r2,13(r2)
    18c8:	10800044 	addi	r2,r2,1
    18cc:	1007883a 	mov	r3,r2
    18d0:	e0bffe17 	ldw	r2,-8(fp)
    18d4:	10c00345 	stb	r3,13(r2)
	}
}
    18d8:	e037883a 	mov	sp,fp
    18dc:	dfc00117 	ldw	ra,4(sp)
    18e0:	df000017 	ldw	fp,0(sp)
    18e4:	dec00204 	addi	sp,sp,8
    18e8:	f800283a 	ret

000018ec <_printfstr>:
  *
  * @返回值   : none
  *****************************************************************************
**/
void _printfstr(_Typedef_lcdprintf* lcd_st, const char *str)
{
    18ec:	defffc04 	addi	sp,sp,-16
    18f0:	dfc00315 	stw	ra,12(sp)
    18f4:	df000215 	stw	fp,8(sp)
    18f8:	df000204 	addi	fp,sp,8
    18fc:	e13ffe15 	stw	r4,-8(fp)
    1900:	e17fff15 	stw	r5,-4(fp)
	for(;*str != '\0';str++)
    1904:	00002a06 	br	19b0 <_printfstr+0xc4>
	{
		if(*str < 0x80)  //en
		{
			_printfch(lcd_st, *str);
    1908:	e0bfff17 	ldw	r2,-4(fp)
    190c:	10800003 	ldbu	r2,0(r2)
    1910:	11403fcc 	andi	r5,r2,255
    1914:	2940201c 	xori	r5,r5,128
    1918:	297fe004 	addi	r5,r5,-128
    191c:	e13ffe17 	ldw	r4,-8(fp)
    1920:	000176c0 	call	176c <_printfch>
			lcd_st->cursorx += ASCII_WIDTH;
    1924:	e0bffe17 	ldw	r2,-8(fp)
    1928:	1080000b 	ldhu	r2,0(r2)
    192c:	10800204 	addi	r2,r2,8
    1930:	1007883a 	mov	r3,r2
    1934:	e0bffe17 	ldw	r2,-8(fp)
    1938:	10c0000d 	sth	r3,0(r2)
			if(lcd_st->cursorx >= lcddev.x_len)  lcd_st->cursory += ASCII_HEIGHT;
    193c:	e0bffe17 	ldw	r2,-8(fp)
    1940:	10c0000b 	ldhu	r3,0(r2)
    1944:	008002b4 	movhi	r2,10
    1948:	10b8e084 	addi	r2,r2,-7294
    194c:	1080000b 	ldhu	r2,0(r2)
    1950:	18ffffcc 	andi	r3,r3,65535
    1954:	10bfffcc 	andi	r2,r2,65535
    1958:	18800636 	bltu	r3,r2,1974 <_printfstr+0x88>
    195c:	e0bffe17 	ldw	r2,-8(fp)
    1960:	1080008b 	ldhu	r2,2(r2)
    1964:	10800404 	addi	r2,r2,16
    1968:	1007883a 	mov	r3,r2
    196c:	e0bffe17 	ldw	r2,-8(fp)
    1970:	10c0008d 	sth	r3,2(r2)
			if(lcd_st->cursory >= lcddev.y_len)  {lcd_st->cursory = 0;lcd_st->cursorx = 0;}
    1974:	e0bffe17 	ldw	r2,-8(fp)
    1978:	10c0008b 	ldhu	r3,2(r2)
    197c:	008002b4 	movhi	r2,10
    1980:	10b8e104 	addi	r2,r2,-7292
    1984:	1080000b 	ldhu	r2,0(r2)
    1988:	18ffffcc 	andi	r3,r3,65535
    198c:	10bfffcc 	andi	r2,r2,65535
    1990:	18800436 	bltu	r3,r2,19a4 <_printfstr+0xb8>
    1994:	e0bffe17 	ldw	r2,-8(fp)
    1998:	1000008d 	sth	zero,2(r2)
    199c:	e0bffe17 	ldw	r2,-8(fp)
    19a0:	1000000d 	sth	zero,0(r2)
  * @返回值   : none
  *****************************************************************************
**/
void _printfstr(_Typedef_lcdprintf* lcd_st, const char *str)
{
	for(;*str != '\0';str++)
    19a4:	e0bfff17 	ldw	r2,-4(fp)
    19a8:	10800044 	addi	r2,r2,1
    19ac:	e0bfff15 	stw	r2,-4(fp)
    19b0:	e0bfff17 	ldw	r2,-4(fp)
    19b4:	10800003 	ldbu	r2,0(r2)
    19b8:	10803fcc 	andi	r2,r2,255
    19bc:	1080201c 	xori	r2,r2,128
    19c0:	10bfe004 	addi	r2,r2,-128
    19c4:	1004c03a 	cmpne	r2,r2,zero
    19c8:	103fcf1e 	bne	r2,zero,1908 <_printfstr+0x1c>
			lcd_st->cursorx += ASCII_WIDTH;
			if(lcd_st->cursorx >= lcddev.x_len)  lcd_st->cursory += ASCII_HEIGHT;
			if(lcd_st->cursory >= lcddev.y_len)  {lcd_st->cursory = 0;lcd_st->cursorx = 0;}
		}
	}
}
    19cc:	e037883a 	mov	sp,fp
    19d0:	dfc00117 	ldw	ra,4(sp)
    19d4:	df000017 	ldw	fp,0(sp)
    19d8:	dec00204 	addi	sp,sp,8
    19dc:	f800283a 	ret

000019e0 <_printfint>:
  *
  * @Return : none
  *****************************************************************************
**/
void _printfint(_Typedef_lcdprintf* lcd_dec, const int dec)
{
    19e0:	defff804 	addi	sp,sp,-32
    19e4:	dfc00715 	stw	ra,28(sp)
    19e8:	df000615 	stw	fp,24(sp)
    19ec:	df000604 	addi	fp,sp,24
    19f0:	e13ffe15 	stw	r4,-8(fp)
    19f4:	e17fff15 	stw	r5,-4(fp)
	char st[10];
	int tmp = dec;
    19f8:	e0bfff17 	ldw	r2,-4(fp)
    19fc:	e0bffa15 	stw	r2,-24(fp)

	if(tmp == 0)  return;
    1a00:	e0bffa17 	ldw	r2,-24(fp)
    1a04:	1005003a 	cmpeq	r2,r2,zero
    1a08:	1000151e 	bne	r2,zero,1a60 <_printfint+0x80>
	else if(tmp < 0)  //负数
    1a0c:	e0bffa17 	ldw	r2,-24(fp)
    1a10:	1004403a 	cmpge	r2,r2,zero
    1a14:	10000c1e 	bne	r2,zero,1a48 <_printfint+0x68>
	{
		tmp = -tmp;
    1a18:	e0bffa17 	ldw	r2,-24(fp)
    1a1c:	0085c83a 	sub	r2,zero,r2
    1a20:	e0bffa15 	stw	r2,-24(fp)
		_printfch(lcd_dec, '-');
    1a24:	e13ffe17 	ldw	r4,-8(fp)
    1a28:	01400b44 	movi	r5,45
    1a2c:	000176c0 	call	176c <_printfch>
		lcd_dec->cursorx += ASCII_WIDTH;
    1a30:	e0bffe17 	ldw	r2,-8(fp)
    1a34:	1080000b 	ldhu	r2,0(r2)
    1a38:	10800204 	addi	r2,r2,8
    1a3c:	1007883a 	mov	r3,r2
    1a40:	e0bffe17 	ldw	r2,-8(fp)
    1a44:	10c0000d 	sth	r3,0(r2)
	}

	Array_To_String    ((alt_u32)tmp, (alt_u8*)st);
    1a48:	e13ffa17 	ldw	r4,-24(fp)
    1a4c:	e17ffb04 	addi	r5,fp,-20
    1a50:	00015c00 	call	15c0 <Array_To_String>
	_printfstr(lcd_dec, (const char *)st);
    1a54:	e17ffb04 	addi	r5,fp,-20
    1a58:	e13ffe17 	ldw	r4,-8(fp)
    1a5c:	00018ec0 	call	18ec <_printfstr>
}
    1a60:	e037883a 	mov	sp,fp
    1a64:	dfc00117 	ldw	ra,4(sp)
    1a68:	df000017 	ldw	fp,0(sp)
    1a6c:	dec00204 	addi	sp,sp,8
    1a70:	f800283a 	ret

00001a74 <_printfflt>:
  *
  * @Return : none
  *****************************************************************************
**/
void _printfflt(_Typedef_lcdprintf* lcd_dec, const float flt)
{
    1a74:	defff704 	addi	sp,sp,-36
    1a78:	dfc00815 	stw	ra,32(sp)
    1a7c:	df000715 	stw	fp,28(sp)
    1a80:	dc000615 	stw	r16,24(sp)
    1a84:	df000604 	addi	fp,sp,24
    1a88:	e13ffe15 	stw	r4,-8(fp)
    1a8c:	e17fff15 	stw	r5,-4(fp)
	int pre=0;
    1a90:	e03ffd15 	stw	zero,-12(fp)
	int flt_int=0;
    1a94:	e03ffc15 	stw	zero,-16(fp)
	int flt_flo=0;
    1a98:	e03ffb15 	stw	zero,-20(fp)
	float tmp=flt;
    1a9c:	e0bfff17 	ldw	r2,-4(fp)
    1aa0:	e0bffa15 	stw	r2,-24(fp)

	if(tmp < 0)
    1aa4:	e13ffa17 	ldw	r4,-24(fp)
    1aa8:	000b883a 	mov	r5,zero
    1aac:	0002b8c0 	call	2b8c <__ltsf2>
    1ab0:	1004803a 	cmplt	r2,r2,zero
    1ab4:	1000011e 	bne	r2,zero,1abc <_printfflt+0x48>
    1ab8:	00000c06 	br	1aec <_printfflt+0x78>
	{
		tmp = -tmp;
    1abc:	e0bffa17 	ldw	r2,-24(fp)
    1ac0:	10a0003c 	xorhi	r2,r2,32768
    1ac4:	e0bffa15 	stw	r2,-24(fp)
		_printfch(lcd_dec, '-');
    1ac8:	e13ffe17 	ldw	r4,-8(fp)
    1acc:	01400b44 	movi	r5,45
    1ad0:	000176c0 	call	176c <_printfch>
		lcd_dec->cursorx += ASCII_WIDTH;
    1ad4:	e0bffe17 	ldw	r2,-8(fp)
    1ad8:	1080000b 	ldhu	r2,0(r2)
    1adc:	10800204 	addi	r2,r2,8
    1ae0:	1007883a 	mov	r3,r2
    1ae4:	e0bffe17 	ldw	r2,-8(fp)
    1ae8:	10c0000d 	sth	r3,0(r2)
	}

	pre = (int)Equation_Calculate(10, lcd_dec->precision);  //得到小数精度
    1aec:	e0bffe17 	ldw	r2,-8(fp)
    1af0:	1080028b 	ldhu	r2,10(r2)
    1af4:	11403fcc 	andi	r5,r2,255
    1af8:	01000284 	movi	r4,10
    1afc:	00015640 	call	1564 <Equation_Calculate>
    1b00:	e0bffd15 	stw	r2,-12(fp)
	flt_int = (int)(tmp);  //整数
    1b04:	e13ffa17 	ldw	r4,-24(fp)
    1b08:	0002c9c0 	call	2c9c <__fixsfsi>
    1b0c:	e0bffc15 	stw	r2,-16(fp)
	flt_flo = (int)((tmp - flt_int) * pre);  //小数
    1b10:	e13ffc17 	ldw	r4,-16(fp)
    1b14:	0002c040 	call	2c04 <__floatsisf>
    1b18:	e13ffa17 	ldw	r4,-24(fp)
    1b1c:	100b883a 	mov	r5,r2
    1b20:	00028d80 	call	28d8 <__subsf3>
    1b24:	1021883a 	mov	r16,r2
    1b28:	e13ffd17 	ldw	r4,-12(fp)
    1b2c:	0002c040 	call	2c04 <__floatsisf>
    1b30:	8009883a 	mov	r4,r16
    1b34:	100b883a 	mov	r5,r2
    1b38:	00029ac0 	call	29ac <__mulsf3>
    1b3c:	1009883a 	mov	r4,r2
    1b40:	0002c9c0 	call	2c9c <__fixsfsi>
    1b44:	e0bffb15 	stw	r2,-20(fp)

	pre = (int)Equation_Calculate(10, (lcd_dec->min_width - lcd_dec->precision - 1));
    1b48:	e0bffe17 	ldw	r2,-8(fp)
    1b4c:	1080020b 	ldhu	r2,8(r2)
    1b50:	1007883a 	mov	r3,r2
    1b54:	e0bffe17 	ldw	r2,-8(fp)
    1b58:	1080028b 	ldhu	r2,10(r2)
    1b5c:	1885c83a 	sub	r2,r3,r2
    1b60:	10bfffc4 	addi	r2,r2,-1
    1b64:	11403fcc 	andi	r5,r2,255
    1b68:	01000284 	movi	r4,10
    1b6c:	00015640 	call	1564 <Equation_Calculate>
    1b70:	e0bffd15 	stw	r2,-12(fp)

	_printfint(lcd_dec, flt_int%pre);  //显示整数位
    1b74:	e13ffc17 	ldw	r4,-16(fp)
    1b78:	e17ffd17 	ldw	r5,-12(fp)
    1b7c:	0002e800 	call	2e80 <__modsi3>
    1b80:	100b883a 	mov	r5,r2
    1b84:	e13ffe17 	ldw	r4,-8(fp)
    1b88:	00019e00 	call	19e0 <_printfint>
	_printfch(lcd_dec, '.');
    1b8c:	e13ffe17 	ldw	r4,-8(fp)
    1b90:	01400b84 	movi	r5,46
    1b94:	000176c0 	call	176c <_printfch>
	lcd_dec->cursorx += ASCII_WIDTH;
    1b98:	e0bffe17 	ldw	r2,-8(fp)
    1b9c:	1080000b 	ldhu	r2,0(r2)
    1ba0:	10800204 	addi	r2,r2,8
    1ba4:	1007883a 	mov	r3,r2
    1ba8:	e0bffe17 	ldw	r2,-8(fp)
    1bac:	10c0000d 	sth	r3,0(r2)
	_printfint(lcd_dec, flt_flo);  //显示小数位
    1bb0:	e13ffe17 	ldw	r4,-8(fp)
    1bb4:	e17ffb17 	ldw	r5,-20(fp)
    1bb8:	00019e00 	call	19e0 <_printfint>
}
    1bbc:	e037883a 	mov	sp,fp
    1bc0:	dfc00217 	ldw	ra,8(sp)
    1bc4:	df000117 	ldw	fp,4(sp)
    1bc8:	dc000017 	ldw	r16,0(sp)
    1bcc:	dec00304 	addi	sp,sp,12
    1bd0:	f800283a 	ret

00001bd4 <_printfhex>:
  *
  * @Return : none
  *****************************************************************************
**/
void _printfhex(_Typedef_lcdprintf* lcd_hex, const int Hex, int index)
{
    1bd4:	deffee04 	addi	sp,sp,-72
    1bd8:	dfc01115 	stw	ra,68(sp)
    1bdc:	df001015 	stw	fp,64(sp)
    1be0:	dc000f15 	stw	r16,60(sp)
    1be4:	df000f04 	addi	fp,sp,60
    1be8:	e13ffd15 	stw	r4,-12(fp)
    1bec:	e17ffe15 	stw	r5,-8(fp)
    1bf0:	e1bfff15 	stw	r6,-4(fp)
	char HexIndex[16] = "0123456789ABCDEF";
    1bf4:	00c00034 	movhi	r3,0
    1bf8:	18dbb504 	addi	r3,r3,28372
    1bfc:	18800017 	ldw	r2,0(r3)
    1c00:	e0bff515 	stw	r2,-44(fp)
    1c04:	18800117 	ldw	r2,4(r3)
    1c08:	e0bff615 	stw	r2,-40(fp)
    1c0c:	18800217 	ldw	r2,8(r3)
    1c10:	e0bff715 	stw	r2,-36(fp)
    1c14:	18800317 	ldw	r2,12(r3)
    1c18:	e0bff815 	stw	r2,-32(fp)
	char str[16];
	char tmp=0;
    1c1c:	e03ff405 	stb	zero,-48(fp)
	int i = 0,j = 0;
    1c20:	e03ff315 	stw	zero,-52(fp)
    1c24:	e03ff215 	stw	zero,-56(fp)
	int temp=Hex;
    1c28:	e0bffe17 	ldw	r2,-8(fp)
    1c2c:	e0bff115 	stw	r2,-60(fp)

	do
	{
		str[i++] = HexIndex[temp%index];
    1c30:	e43ff317 	ldw	r16,-52(fp)
    1c34:	e13ff117 	ldw	r4,-60(fp)
    1c38:	e17fff17 	ldw	r5,-4(fp)
    1c3c:	0002e800 	call	2e80 <__modsi3>
    1c40:	1007883a 	mov	r3,r2
    1c44:	e0bff504 	addi	r2,fp,-44
    1c48:	10c5883a 	add	r2,r2,r3
    1c4c:	10c00003 	ldbu	r3,0(r2)
    1c50:	e0bff904 	addi	r2,fp,-28
    1c54:	1405883a 	add	r2,r2,r16
    1c58:	10c00005 	stb	r3,0(r2)
    1c5c:	e0bff317 	ldw	r2,-52(fp)
    1c60:	10800044 	addi	r2,r2,1
    1c64:	e0bff315 	stw	r2,-52(fp)
		temp /= index;
    1c68:	e13ff117 	ldw	r4,-60(fp)
    1c6c:	e17fff17 	ldw	r5,-4(fp)
    1c70:	0002e200 	call	2e20 <__divsi3>
    1c74:	e0bff115 	stw	r2,-60(fp)
	}while(temp);
    1c78:	e0bff117 	ldw	r2,-60(fp)
    1c7c:	1004c03a 	cmpne	r2,r2,zero
    1c80:	103feb1e 	bne	r2,zero,1c30 <_printfhex+0x5c>
	str[i] = '\0';
    1c84:	e0bff317 	ldw	r2,-52(fp)
    1c88:	e0fff904 	addi	r3,fp,-28
    1c8c:	1885883a 	add	r2,r3,r2
    1c90:	10000005 	stb	zero,0(r2)

	//字符串倒序
	for(j = 0;j <(i-1)/2;j++)
    1c94:	e03ff215 	stw	zero,-56(fp)
    1c98:	00001b06 	br	1d08 <_printfhex+0x134>
	{
		tmp = str[j];
    1c9c:	e0fff217 	ldw	r3,-56(fp)
    1ca0:	e0bff904 	addi	r2,fp,-28
    1ca4:	10c5883a 	add	r2,r2,r3
    1ca8:	10800003 	ldbu	r2,0(r2)
    1cac:	e0bff405 	stb	r2,-48(fp)
		str[j] = str[i-1-j];
    1cb0:	e13ff217 	ldw	r4,-56(fp)
    1cb4:	e0fff317 	ldw	r3,-52(fp)
    1cb8:	e0bff217 	ldw	r2,-56(fp)
    1cbc:	1885c83a 	sub	r2,r3,r2
    1cc0:	10ffffc4 	addi	r3,r2,-1
    1cc4:	e0bff904 	addi	r2,fp,-28
    1cc8:	10c5883a 	add	r2,r2,r3
    1ccc:	10c00003 	ldbu	r3,0(r2)
    1cd0:	e0bff904 	addi	r2,fp,-28
    1cd4:	1105883a 	add	r2,r2,r4
    1cd8:	10c00005 	stb	r3,0(r2)
		str[i-1-j] = tmp;
    1cdc:	e0fff317 	ldw	r3,-52(fp)
    1ce0:	e0bff217 	ldw	r2,-56(fp)
    1ce4:	1885c83a 	sub	r2,r3,r2
    1ce8:	10ffffc4 	addi	r3,r2,-1
    1cec:	e0bff904 	addi	r2,fp,-28
    1cf0:	10c7883a 	add	r3,r2,r3
    1cf4:	e0bff403 	ldbu	r2,-48(fp)
    1cf8:	18800005 	stb	r2,0(r3)
		temp /= index;
	}while(temp);
	str[i] = '\0';

	//字符串倒序
	for(j = 0;j <(i-1)/2;j++)
    1cfc:	e0bff217 	ldw	r2,-56(fp)
    1d00:	10800044 	addi	r2,r2,1
    1d04:	e0bff215 	stw	r2,-56(fp)
    1d08:	e0bff317 	ldw	r2,-52(fp)
    1d0c:	10ffffc4 	addi	r3,r2,-1
    1d10:	1804d7fa 	srli	r2,r3,31
    1d14:	10c5883a 	add	r2,r2,r3
    1d18:	1005d07a 	srai	r2,r2,1
    1d1c:	1007883a 	mov	r3,r2
    1d20:	e0bff217 	ldw	r2,-56(fp)
    1d24:	10ffdd16 	blt	r2,r3,1c9c <_printfhex+0xc8>
		tmp = str[j];
		str[j] = str[i-1-j];
		str[i-1-j] = tmp;
	}

	if(index == 16)  //十六进制
    1d28:	e0bfff17 	ldw	r2,-4(fp)
    1d2c:	10800418 	cmpnei	r2,r2,16
    1d30:	1000131e 	bne	r2,zero,1d80 <_printfhex+0x1ac>
	{
		_printfch(lcd_hex, '0');lcd_hex->cursorx += ASCII_WIDTH;
    1d34:	e13ffd17 	ldw	r4,-12(fp)
    1d38:	01400c04 	movi	r5,48
    1d3c:	000176c0 	call	176c <_printfch>
    1d40:	e0bffd17 	ldw	r2,-12(fp)
    1d44:	1080000b 	ldhu	r2,0(r2)
    1d48:	10800204 	addi	r2,r2,8
    1d4c:	1007883a 	mov	r3,r2
    1d50:	e0bffd17 	ldw	r2,-12(fp)
    1d54:	10c0000d 	sth	r3,0(r2)
		_printfch(lcd_hex, 'x');lcd_hex->cursorx += ASCII_WIDTH;
    1d58:	e13ffd17 	ldw	r4,-12(fp)
    1d5c:	01401e04 	movi	r5,120
    1d60:	000176c0 	call	176c <_printfch>
    1d64:	e0bffd17 	ldw	r2,-12(fp)
    1d68:	1080000b 	ldhu	r2,0(r2)
    1d6c:	10800204 	addi	r2,r2,8
    1d70:	1007883a 	mov	r3,r2
    1d74:	e0bffd17 	ldw	r2,-12(fp)
    1d78:	10c0000d 	sth	r3,0(r2)
    1d7c:	00000c06 	br	1db0 <_printfhex+0x1dc>
	}
	else if(index == 8)  //八进制
    1d80:	e0bfff17 	ldw	r2,-4(fp)
    1d84:	10800218 	cmpnei	r2,r2,8
    1d88:	1000091e 	bne	r2,zero,1db0 <_printfhex+0x1dc>
	{
		_printfch(lcd_hex, '0');lcd_hex->cursorx += ASCII_WIDTH;
    1d8c:	e13ffd17 	ldw	r4,-12(fp)
    1d90:	01400c04 	movi	r5,48
    1d94:	000176c0 	call	176c <_printfch>
    1d98:	e0bffd17 	ldw	r2,-12(fp)
    1d9c:	1080000b 	ldhu	r2,0(r2)
    1da0:	10800204 	addi	r2,r2,8
    1da4:	1007883a 	mov	r3,r2
    1da8:	e0bffd17 	ldw	r2,-12(fp)
    1dac:	10c0000d 	sth	r3,0(r2)
	}
	_printfstr(lcd_hex, (const char *)str);
    1db0:	e17ff904 	addi	r5,fp,-28
    1db4:	e13ffd17 	ldw	r4,-12(fp)
    1db8:	00018ec0 	call	18ec <_printfstr>
}
    1dbc:	e037883a 	mov	sp,fp
    1dc0:	dfc00217 	ldw	ra,8(sp)
    1dc4:	df000117 	ldw	fp,4(sp)
    1dc8:	dc000017 	ldw	r16,0(sp)
    1dcc:	dec00304 	addi	sp,sp,12
    1dd0:	f800283a 	ret

00001dd4 <LCD_printf>:
  *
  * @返回值   : none
  *****************************************************************************
**/
int LCD_printf(_Typedef_lcdprintf* lcd_pr, const alt_u8 *format, ...)
{
    1dd4:	defff204 	addi	sp,sp,-56
    1dd8:	dfc00b15 	stw	ra,44(sp)
    1ddc:	df000a15 	stw	fp,40(sp)
    1de0:	df000a04 	addi	fp,sp,40
    1de4:	e13ffc15 	stw	r4,-16(fp)
    1de8:	e1800215 	stw	r6,8(fp)
    1dec:	e1c00315 	stw	r7,12(fp)
    1df0:	e17ffd15 	stw	r5,-12(fp)
    const char *str;
    char c=0;
    1df4:	e03ff905 	stb	zero,-28(fp)
    float valflt=0;
    1df8:	e03ff815 	stw	zero,-32(fp)
    int dec=0;
    1dfc:	e03ff715 	stw	zero,-36(fp)
    alt_u8 index=0;
    1e00:	e03ff605 	stb	zero,-40(fp)

    va_list ap;
    va_start(ap, format);
    1e04:	e0800204 	addi	r2,fp,8
    1e08:	e0bffb15 	stw	r2,-20(fp)

    lcd_pr->min_width = 7;
    1e0c:	e0fffc17 	ldw	r3,-16(fp)
    1e10:	008001c4 	movi	r2,7
    1e14:	1880020d 	sth	r2,8(r3)
    lcd_pr->precision = 3;
    1e18:	e0fffc17 	ldw	r3,-16(fp)
    1e1c:	008000c4 	movi	r2,3
    1e20:	1880028d 	sth	r2,10(r3)
    lcd_pr->charcnt   = 0;
    1e24:	e0bffc17 	ldw	r2,-16(fp)
    1e28:	10000345 	stb	zero,13(r2)

    while(*format != '\0')  //直到遇到结束符
    1e2c:	0001b406 	br	2500 <LCD_printf+0x72c>
    {
        if(*format == 0x5c)  //符号'\'
    1e30:	e0bffd17 	ldw	r2,-12(fp)
    1e34:	10800003 	ldbu	r2,0(r2)
    1e38:	10803fcc 	andi	r2,r2,255
    1e3c:	10801718 	cmpnei	r2,r2,92
    1e40:	10002a1e 	bne	r2,zero,1eec <LCD_printf+0x118>
        {
            format++;
    1e44:	e0bffd17 	ldw	r2,-12(fp)
    1e48:	10800044 	addi	r2,r2,1
    1e4c:	e0bffd15 	stw	r2,-12(fp)
            switch(*format)
    1e50:	e0bffd17 	ldw	r2,-12(fp)
    1e54:	10800003 	ldbu	r2,0(r2)
    1e58:	10803fcc 	andi	r2,r2,255
    1e5c:	e0bffe15 	stw	r2,-8(fp)
    1e60:	e0fffe17 	ldw	r3,-8(fp)
    1e64:	18801ca0 	cmpeqi	r2,r3,114
    1e68:	1000071e 	bne	r2,zero,1e88 <LCD_printf+0xb4>
    1e6c:	e13ffe17 	ldw	r4,-8(fp)
    1e70:	20801d20 	cmpeqi	r2,r4,116
    1e74:	1000121e 	bne	r2,zero,1ec0 <LCD_printf+0xec>
    1e78:	e0fffe17 	ldw	r3,-8(fp)
    1e7c:	18801ba0 	cmpeqi	r2,r3,110
    1e80:	1000081e 	bne	r2,zero,1ea4 <LCD_printf+0xd0>
    1e84:	00001506 	br	1edc <LCD_printf+0x108>
            {
                case 'r':  //LF
                        _printfch(lcd_pr, '\r');
    1e88:	e13ffc17 	ldw	r4,-16(fp)
    1e8c:	01400344 	movi	r5,13
    1e90:	000176c0 	call	176c <_printfch>
                        format++;
    1e94:	e0bffd17 	ldw	r2,-12(fp)
    1e98:	10800044 	addi	r2,r2,1
    1e9c:	e0bffd15 	stw	r2,-12(fp)
                        break;
    1ea0:	00019706 	br	2500 <LCD_printf+0x72c>

                case 'n':  //CR
                        _printfch(lcd_pr, '\n');
    1ea4:	e13ffc17 	ldw	r4,-16(fp)
    1ea8:	01400284 	movi	r5,10
    1eac:	000176c0 	call	176c <_printfch>
                        format++;
    1eb0:	e0bffd17 	ldw	r2,-12(fp)
    1eb4:	10800044 	addi	r2,r2,1
    1eb8:	e0bffd15 	stw	r2,-12(fp)
                        break;
    1ebc:	00019006 	br	2500 <LCD_printf+0x72c>

                case 't':  //Tab
                        _printfch(lcd_pr, '\t');
    1ec0:	e13ffc17 	ldw	r4,-16(fp)
    1ec4:	01400244 	movi	r5,9
    1ec8:	000176c0 	call	176c <_printfch>
                        format++;
    1ecc:	e0bffd17 	ldw	r2,-12(fp)
    1ed0:	10800044 	addi	r2,r2,1
    1ed4:	e0bffd15 	stw	r2,-12(fp)
                        break;
    1ed8:	00018906 	br	2500 <LCD_printf+0x72c>

                default:
                        format++;
    1edc:	e0bffd17 	ldw	r2,-12(fp)
    1ee0:	10800044 	addi	r2,r2,1
    1ee4:	e0bffd15 	stw	r2,-12(fp)
    1ee8:	00018506 	br	2500 <LCD_printf+0x72c>
                        break;
            }
        }
        else if(*format == '%')  //带格式输出
    1eec:	e0bffd17 	ldw	r2,-12(fp)
    1ef0:	10800003 	ldbu	r2,0(r2)
    1ef4:	10803fcc 	andi	r2,r2,255
    1ef8:	10800958 	cmpnei	r2,r2,37
    1efc:	1001691e 	bne	r2,zero,24a4 <LCD_printf+0x6d0>
        {
            format++;
    1f00:	e0bffd17 	ldw	r2,-12(fp)
    1f04:	10800044 	addi	r2,r2,1
    1f08:	e0bffd15 	stw	r2,-12(fp)
            index = 0;
    1f0c:	e03ff605 	stb	zero,-40(fp)
            lcd_pr->min_width = 0;
    1f10:	e0bffc17 	ldw	r2,-16(fp)
    1f14:	1000020d 	sth	zero,8(r2)
            while((*format <= '9') && (*format >= '0'))  //域宽
    1f18:	00001506 	br	1f70 <LCD_printf+0x19c>
            {
                lcd_pr->min_width = (lcd_pr->min_width * index * 10) + (*format - '0');
    1f1c:	e0bffc17 	ldw	r2,-16(fp)
    1f20:	1080020b 	ldhu	r2,8(r2)
    1f24:	10ffffcc 	andi	r3,r2,65535
    1f28:	e0bff603 	ldbu	r2,-40(fp)
    1f2c:	1885383a 	mul	r2,r3,r2
    1f30:	108002a4 	muli	r2,r2,10
    1f34:	1007883a 	mov	r3,r2
    1f38:	e0bffd17 	ldw	r2,-12(fp)
    1f3c:	10800003 	ldbu	r2,0(r2)
    1f40:	10803fcc 	andi	r2,r2,255
    1f44:	1885883a 	add	r2,r3,r2
    1f48:	10bff404 	addi	r2,r2,-48
    1f4c:	1007883a 	mov	r3,r2
    1f50:	e0bffc17 	ldw	r2,-16(fp)
    1f54:	10c0020d 	sth	r3,8(r2)
                index++;
    1f58:	e0bff603 	ldbu	r2,-40(fp)
    1f5c:	10800044 	addi	r2,r2,1
    1f60:	e0bff605 	stb	r2,-40(fp)
                format++;
    1f64:	e0bffd17 	ldw	r2,-12(fp)
    1f68:	10800044 	addi	r2,r2,1
    1f6c:	e0bffd15 	stw	r2,-12(fp)
        else if(*format == '%')  //带格式输出
        {
            format++;
            index = 0;
            lcd_pr->min_width = 0;
            while((*format <= '9') && (*format >= '0'))  //域宽
    1f70:	e0bffd17 	ldw	r2,-12(fp)
    1f74:	10800003 	ldbu	r2,0(r2)
    1f78:	10803fcc 	andi	r2,r2,255
    1f7c:	10800ea8 	cmpgeui	r2,r2,58
    1f80:	1000051e 	bne	r2,zero,1f98 <LCD_printf+0x1c4>
    1f84:	e0bffd17 	ldw	r2,-12(fp)
    1f88:	10800003 	ldbu	r2,0(r2)
    1f8c:	10803fcc 	andi	r2,r2,255
    1f90:	10800c28 	cmpgeui	r2,r2,48
    1f94:	103fe11e 	bne	r2,zero,1f1c <LCD_printf+0x148>
            {
                lcd_pr->min_width = (lcd_pr->min_width * index * 10) + (*format - '0');
                index++;
                format++;
            }
            if(*format == '.')  //检测到点
    1f98:	e0bffd17 	ldw	r2,-12(fp)
    1f9c:	10800003 	ldbu	r2,0(r2)
    1fa0:	10803fcc 	andi	r2,r2,255
    1fa4:	10800b98 	cmpnei	r2,r2,46
    1fa8:	1000261e 	bne	r2,zero,2044 <LCD_printf+0x270>
            {
                format++;
    1fac:	e0bffd17 	ldw	r2,-12(fp)
    1fb0:	10800044 	addi	r2,r2,1
    1fb4:	e0bffd15 	stw	r2,-12(fp)
                index = 0;
    1fb8:	e03ff605 	stb	zero,-40(fp)
                lcd_pr->precision = 0;
    1fbc:	e0bffc17 	ldw	r2,-16(fp)
    1fc0:	1000028d 	sth	zero,10(r2)
                while((*format <= '9') && (*format >= '0'))  //精度
    1fc4:	00001506 	br	201c <LCD_printf+0x248>
                {
                    lcd_pr->precision = (lcd_pr->precision * index * 10) + (*format - '0');
    1fc8:	e0bffc17 	ldw	r2,-16(fp)
    1fcc:	1080028b 	ldhu	r2,10(r2)
    1fd0:	10ffffcc 	andi	r3,r2,65535
    1fd4:	e0bff603 	ldbu	r2,-40(fp)
    1fd8:	1885383a 	mul	r2,r3,r2
    1fdc:	108002a4 	muli	r2,r2,10
    1fe0:	1007883a 	mov	r3,r2
    1fe4:	e0bffd17 	ldw	r2,-12(fp)
    1fe8:	10800003 	ldbu	r2,0(r2)
    1fec:	10803fcc 	andi	r2,r2,255
    1ff0:	1885883a 	add	r2,r3,r2
    1ff4:	10bff404 	addi	r2,r2,-48
    1ff8:	1007883a 	mov	r3,r2
    1ffc:	e0bffc17 	ldw	r2,-16(fp)
    2000:	10c0028d 	sth	r3,10(r2)
                    index++;
    2004:	e0bff603 	ldbu	r2,-40(fp)
    2008:	10800044 	addi	r2,r2,1
    200c:	e0bff605 	stb	r2,-40(fp)
                    format++;
    2010:	e0bffd17 	ldw	r2,-12(fp)
    2014:	10800044 	addi	r2,r2,1
    2018:	e0bffd15 	stw	r2,-12(fp)
            if(*format == '.')  //检测到点
            {
                format++;
                index = 0;
                lcd_pr->precision = 0;
                while((*format <= '9') && (*format >= '0'))  //精度
    201c:	e0bffd17 	ldw	r2,-12(fp)
    2020:	10800003 	ldbu	r2,0(r2)
    2024:	10803fcc 	andi	r2,r2,255
    2028:	10800ea8 	cmpgeui	r2,r2,58
    202c:	1000051e 	bne	r2,zero,2044 <LCD_printf+0x270>
    2030:	e0bffd17 	ldw	r2,-12(fp)
    2034:	10800003 	ldbu	r2,0(r2)
    2038:	10803fcc 	andi	r2,r2,255
    203c:	10800c28 	cmpgeui	r2,r2,48
    2040:	103fe11e 	bne	r2,zero,1fc8 <LCD_printf+0x1f4>
                    lcd_pr->precision = (lcd_pr->precision * index * 10) + (*format - '0');
                    index++;
                    format++;
                }
            }
            switch(*format)  //检测格式码
    2044:	e0bffd17 	ldw	r2,-12(fp)
    2048:	10800003 	ldbu	r2,0(r2)
    204c:	10803fcc 	andi	r2,r2,255
    2050:	10bff6c4 	addi	r2,r2,-37
    2054:	e0bfff15 	stw	r2,-4(fp)
    2058:	e13fff17 	ldw	r4,-4(fp)
    205c:	20801528 	cmpgeui	r2,r4,84
    2060:	1001051e 	bne	r2,zero,2478 <LCD_printf+0x6a4>
    2064:	e0ffff17 	ldw	r3,-4(fp)
    2068:	e0ffff17 	ldw	r3,-4(fp)
    206c:	18c5883a 	add	r2,r3,r3
    2070:	1087883a 	add	r3,r2,r2
    2074:	00800034 	movhi	r2,0
    2078:	10882204 	addi	r2,r2,8328
    207c:	1885883a 	add	r2,r3,r2
    2080:	10800017 	ldw	r2,0(r2)
    2084:	1000683a 	jmp	r2
    2088:	000021d8 	cmpnei	zero,zero,135
    208c:	00002478 	rdprs	zero,zero,145
    2090:	00002478 	rdprs	zero,zero,145
    2094:	00002478 	rdprs	zero,zero,145
    2098:	00002478 	rdprs	zero,zero,145
    209c:	00002478 	rdprs	zero,zero,145
    20a0:	00002478 	rdprs	zero,zero,145
    20a4:	00002478 	rdprs	zero,zero,145
    20a8:	00002478 	rdprs	zero,zero,145
    20ac:	00002478 	rdprs	zero,zero,145
    20b0:	00002478 	rdprs	zero,zero,145
    20b4:	00002478 	rdprs	zero,zero,145
    20b8:	00002478 	rdprs	zero,zero,145
    20bc:	00002478 	rdprs	zero,zero,145
    20c0:	00002478 	rdprs	zero,zero,145
    20c4:	00002478 	rdprs	zero,zero,145
    20c8:	00002478 	rdprs	zero,zero,145
    20cc:	00002478 	rdprs	zero,zero,145
    20d0:	00002478 	rdprs	zero,zero,145
    20d4:	00002478 	rdprs	zero,zero,145
    20d8:	00002478 	rdprs	zero,zero,145
    20dc:	00002478 	rdprs	zero,zero,145
    20e0:	00002478 	rdprs	zero,zero,145
    20e4:	00002478 	rdprs	zero,zero,145
    20e8:	00002478 	rdprs	zero,zero,145
    20ec:	00002478 	rdprs	zero,zero,145
    20f0:	00002478 	rdprs	zero,zero,145
    20f4:	00002478 	rdprs	zero,zero,145
    20f8:	00002478 	rdprs	zero,zero,145
    20fc:	00002478 	rdprs	zero,zero,145
    2100:	00002478 	rdprs	zero,zero,145
    2104:	00002478 	rdprs	zero,zero,145
    2108:	00002478 	rdprs	zero,zero,145
    210c:	00002478 	rdprs	zero,zero,145
    2110:	00002478 	rdprs	zero,zero,145
    2114:	00002478 	rdprs	zero,zero,145
    2118:	00002478 	rdprs	zero,zero,145
    211c:	00002478 	rdprs	zero,zero,145
    2120:	00002478 	rdprs	zero,zero,145
    2124:	00002478 	rdprs	zero,zero,145
    2128:	00002478 	rdprs	zero,zero,145
    212c:	00002478 	rdprs	zero,zero,145
    2130:	00002478 	rdprs	zero,zero,145
    2134:	00002478 	rdprs	zero,zero,145
    2138:	00002478 	rdprs	zero,zero,145
    213c:	00002478 	rdprs	zero,zero,145
    2140:	00002240 	call	224 <LCD_Dir+0x28>
    2144:	00002478 	rdprs	zero,zero,145
    2148:	00002478 	rdprs	zero,zero,145
    214c:	00002478 	rdprs	zero,zero,145
    2150:	00002478 	rdprs	zero,zero,145
    2154:	000022ec 	andhi	zero,zero,139
    2158:	00002478 	rdprs	zero,zero,145
    215c:	00002478 	rdprs	zero,zero,145
    2160:	00002478 	rdprs	zero,zero,145
    2164:	00002478 	rdprs	zero,zero,145
    2168:	00002478 	rdprs	zero,zero,145
    216c:	00002478 	rdprs	zero,zero,145
    2170:	00002478 	rdprs	zero,zero,145
    2174:	00002478 	rdprs	zero,zero,145
    2178:	00002478 	rdprs	zero,zero,145
    217c:	00002478 	rdprs	zero,zero,145
    2180:	0000220c 	andi	zero,zero,136
    2184:	00002274 	movhi	zero,137
    2188:	00002478 	rdprs	zero,zero,145
    218c:	000022a8 	cmpgeui	zero,zero,138
    2190:	00002478 	rdprs	zero,zero,145
    2194:	00002478 	rdprs	zero,zero,145
    2198:	00002478 	rdprs	zero,zero,145
    219c:	00002478 	rdprs	zero,zero,145
    21a0:	00002478 	rdprs	zero,zero,145
    21a4:	00002478 	rdprs	zero,zero,145
    21a8:	0000235c 	xori	zero,zero,141
    21ac:	00002478 	rdprs	zero,zero,145
    21b0:	00002324 	muli	zero,zero,140
    21b4:	00002478 	rdprs	zero,zero,145
    21b8:	00002478 	rdprs	zero,zero,145
    21bc:	00002478 	rdprs	zero,zero,145
    21c0:	00002240 	call	224 <LCD_Dir+0x28>
    21c4:	00002478 	rdprs	zero,zero,145
    21c8:	00002478 	rdprs	zero,zero,145
    21cc:	00002478 	rdprs	zero,zero,145
    21d0:	00002478 	rdprs	zero,zero,145
    21d4:	000022ec 	andhi	zero,zero,139
            {
                case '%':  //输出%符号
                        _printfch(lcd_pr, '%');
    21d8:	e13ffc17 	ldw	r4,-16(fp)
    21dc:	01400944 	movi	r5,37
    21e0:	000176c0 	call	176c <_printfch>
                        lcd_pr->cursorx += ASCII_WIDTH;
    21e4:	e0bffc17 	ldw	r2,-16(fp)
    21e8:	1080000b 	ldhu	r2,0(r2)
    21ec:	10800204 	addi	r2,r2,8
    21f0:	1007883a 	mov	r3,r2
    21f4:	e0bffc17 	ldw	r2,-16(fp)
    21f8:	10c0000d 	sth	r3,0(r2)
                        format++;
    21fc:	e0bffd17 	ldw	r2,-12(fp)
    2200:	10800044 	addi	r2,r2,1
    2204:	e0bffd15 	stw	r2,-12(fp)
                        break;
    2208:	0000bd06 	br	2500 <LCD_printf+0x72c>

                case 'c':  //输出字符
                        c = va_arg(ap, int);
    220c:	e0fffb17 	ldw	r3,-20(fp)
    2210:	18800104 	addi	r2,r3,4
    2214:	e0bffb15 	stw	r2,-20(fp)
    2218:	1805883a 	mov	r2,r3
    221c:	10800017 	ldw	r2,0(r2)
    2220:	e0bff905 	stb	r2,-28(fp)
                        _printfch(lcd_pr, c);
    2224:	e17ff907 	ldb	r5,-28(fp)
    2228:	e13ffc17 	ldw	r4,-16(fp)
    222c:	000176c0 	call	176c <_printfch>
                        format++;
    2230:	e0bffd17 	ldw	r2,-12(fp)
    2234:	10800044 	addi	r2,r2,1
    2238:	e0bffd15 	stw	r2,-12(fp)
                        break;
    223c:	0000b006 	br	2500 <LCD_printf+0x72c>

                case 'S':
                case 's':  //输出字符串
                        str = va_arg(ap, const char *);
    2240:	e0fffb17 	ldw	r3,-20(fp)
    2244:	18800104 	addi	r2,r3,4
    2248:	e0bffb15 	stw	r2,-20(fp)
    224c:	1805883a 	mov	r2,r3
    2250:	10800017 	ldw	r2,0(r2)
    2254:	e0bffa15 	stw	r2,-24(fp)
                        _printfstr(lcd_pr, (char*)str);
    2258:	e13ffc17 	ldw	r4,-16(fp)
    225c:	e17ffa17 	ldw	r5,-24(fp)
    2260:	00018ec0 	call	18ec <_printfstr>
                        format++;
    2264:	e0bffd17 	ldw	r2,-12(fp)
    2268:	10800044 	addi	r2,r2,1
    226c:	e0bffd15 	stw	r2,-12(fp)
                        break;
    2270:	0000a306 	br	2500 <LCD_printf+0x72c>

                case 'd':  //输出十进制数
                        dec = va_arg(ap, int);
    2274:	e0fffb17 	ldw	r3,-20(fp)
    2278:	18800104 	addi	r2,r3,4
    227c:	e0bffb15 	stw	r2,-20(fp)
    2280:	1805883a 	mov	r2,r3
    2284:	10800017 	ldw	r2,0(r2)
    2288:	e0bff715 	stw	r2,-36(fp)
                        _printfint(lcd_pr, dec);
    228c:	e13ffc17 	ldw	r4,-16(fp)
    2290:	e17ff717 	ldw	r5,-36(fp)
    2294:	00019e00 	call	19e0 <_printfint>
                        format++;
    2298:	e0bffd17 	ldw	r2,-12(fp)
    229c:	10800044 	addi	r2,r2,1
    22a0:	e0bffd15 	stw	r2,-12(fp)
                        break;
    22a4:	00009606 	br	2500 <LCD_printf+0x72c>

                case 'f':  //输出浮点数
                        valflt = va_arg(ap, double);
    22a8:	e0fffb17 	ldw	r3,-20(fp)
    22ac:	18800204 	addi	r2,r3,8
    22b0:	e0bffb15 	stw	r2,-20(fp)
    22b4:	1809883a 	mov	r4,r3
    22b8:	20800017 	ldw	r2,0(r4)
    22bc:	20c00117 	ldw	r3,4(r4)
    22c0:	1009883a 	mov	r4,r2
    22c4:	180b883a 	mov	r5,r3
    22c8:	0002d300 	call	2d30 <__truncdfsf2>
    22cc:	e0bff815 	stw	r2,-32(fp)
                        _printfflt(lcd_pr, valflt);
    22d0:	e13ffc17 	ldw	r4,-16(fp)
    22d4:	e17ff817 	ldw	r5,-32(fp)
    22d8:	0001a740 	call	1a74 <_printfflt>
                        format++;
    22dc:	e0bffd17 	ldw	r2,-12(fp)
    22e0:	10800044 	addi	r2,r2,1
    22e4:	e0bffd15 	stw	r2,-12(fp)
                        break;
    22e8:	00008506 	br	2500 <LCD_printf+0x72c>

                case 'X':
                case 'x':  //输出十六进制数
                        dec = va_arg(ap, int);
    22ec:	e0fffb17 	ldw	r3,-20(fp)
    22f0:	18800104 	addi	r2,r3,4
    22f4:	e0bffb15 	stw	r2,-20(fp)
    22f8:	1805883a 	mov	r2,r3
    22fc:	10800017 	ldw	r2,0(r2)
    2300:	e0bff715 	stw	r2,-36(fp)
                        _printfhex(lcd_pr, dec, 16);
    2304:	e13ffc17 	ldw	r4,-16(fp)
    2308:	e17ff717 	ldw	r5,-36(fp)
    230c:	01800404 	movi	r6,16
    2310:	0001bd40 	call	1bd4 <_printfhex>
                        format++;
    2314:	e0bffd17 	ldw	r2,-12(fp)
    2318:	10800044 	addi	r2,r2,1
    231c:	e0bffd15 	stw	r2,-12(fp)
                        break;
    2320:	00007706 	br	2500 <LCD_printf+0x72c>

                case 'o':  //输出八进制数
                        dec = va_arg(ap, int);
    2324:	e0fffb17 	ldw	r3,-20(fp)
    2328:	18800104 	addi	r2,r3,4
    232c:	e0bffb15 	stw	r2,-20(fp)
    2330:	1805883a 	mov	r2,r3
    2334:	10800017 	ldw	r2,0(r2)
    2338:	e0bff715 	stw	r2,-36(fp)
                        _printfhex(lcd_pr, dec, 8);
    233c:	e13ffc17 	ldw	r4,-16(fp)
    2340:	e17ff717 	ldw	r5,-36(fp)
    2344:	01800204 	movi	r6,8
    2348:	0001bd40 	call	1bd4 <_printfhex>
                        format++;
    234c:	e0bffd17 	ldw	r2,-12(fp)
    2350:	10800044 	addi	r2,r2,1
    2354:	e0bffd15 	stw	r2,-12(fp)
                        break;
    2358:	00006906 	br	2500 <LCD_printf+0x72c>

                case 'm':
                        dec = va_arg(ap, int);
    235c:	e0fffb17 	ldw	r3,-20(fp)
    2360:	18800104 	addi	r2,r3,4
    2364:	e0bffb15 	stw	r2,-20(fp)
    2368:	1805883a 	mov	r2,r3
    236c:	10800017 	ldw	r2,0(r2)
    2370:	e0bff715 	stw	r2,-36(fp)
                        if(dec > 21)  dec = 21;  //限制最大的域宽是21，包括小数点
    2374:	e0bff717 	ldw	r2,-36(fp)
    2378:	10800590 	cmplti	r2,r2,22
    237c:	1000021e 	bne	r2,zero,2388 <LCD_printf+0x5b4>
    2380:	00800544 	movi	r2,21
    2384:	e0bff715 	stw	r2,-36(fp)
                        lcd_pr->min_width = (alt_u16)dec;
    2388:	e0bff717 	ldw	r2,-36(fp)
    238c:	1007883a 	mov	r3,r2
    2390:	e0bffc17 	ldw	r2,-16(fp)
    2394:	10c0020d 	sth	r3,8(r2)
                        format++;
    2398:	e0bffd17 	ldw	r2,-12(fp)
    239c:	10800044 	addi	r2,r2,1
    23a0:	e0bffd15 	stw	r2,-12(fp)
                        if(*format == '.')
    23a4:	e0bffd17 	ldw	r2,-12(fp)
    23a8:	10800003 	ldbu	r2,0(r2)
    23ac:	10803fcc 	andi	r2,r2,255
    23b0:	10800b98 	cmpnei	r2,r2,46
    23b4:	1000521e 	bne	r2,zero,2500 <LCD_printf+0x72c>
                        {
                            format++;
    23b8:	e0bffd17 	ldw	r2,-12(fp)
    23bc:	10800044 	addi	r2,r2,1
    23c0:	e0bffd15 	stw	r2,-12(fp)
                            if(*format == 'n')
    23c4:	e0bffd17 	ldw	r2,-12(fp)
    23c8:	10800003 	ldbu	r2,0(r2)
    23cc:	10803fcc 	andi	r2,r2,255
    23d0:	10801b98 	cmpnei	r2,r2,110
    23d4:	10004a1e 	bne	r2,zero,2500 <LCD_printf+0x72c>
                            {
                                dec = va_arg(ap, int);
    23d8:	e0fffb17 	ldw	r3,-20(fp)
    23dc:	18800104 	addi	r2,r3,4
    23e0:	e0bffb15 	stw	r2,-20(fp)
    23e4:	1805883a 	mov	r2,r3
    23e8:	10800017 	ldw	r2,0(r2)
    23ec:	e0bff715 	stw	r2,-36(fp)
                                if(dec > 8)  dec = 8;  //限制最小的小数精度是，0.00000001
    23f0:	e0bff717 	ldw	r2,-36(fp)
    23f4:	10800250 	cmplti	r2,r2,9
    23f8:	1000021e 	bne	r2,zero,2404 <LCD_printf+0x630>
    23fc:	00800204 	movi	r2,8
    2400:	e0bff715 	stw	r2,-36(fp)
                                lcd_pr->precision = (alt_u16)dec;
    2404:	e0bff717 	ldw	r2,-36(fp)
    2408:	1007883a 	mov	r3,r2
    240c:	e0bffc17 	ldw	r2,-16(fp)
    2410:	10c0028d 	sth	r3,10(r2)
                                format++;
    2414:	e0bffd17 	ldw	r2,-12(fp)
    2418:	10800044 	addi	r2,r2,1
    241c:	e0bffd15 	stw	r2,-12(fp)
                                if(*format == 'f')
    2420:	e0bffd17 	ldw	r2,-12(fp)
    2424:	10800003 	ldbu	r2,0(r2)
    2428:	10803fcc 	andi	r2,r2,255
    242c:	10801998 	cmpnei	r2,r2,102
    2430:	1000331e 	bne	r2,zero,2500 <LCD_printf+0x72c>
                                {
                                    valflt = va_arg(ap, double);
    2434:	e0fffb17 	ldw	r3,-20(fp)
    2438:	18800204 	addi	r2,r3,8
    243c:	e0bffb15 	stw	r2,-20(fp)
    2440:	1809883a 	mov	r4,r3
    2444:	20800017 	ldw	r2,0(r4)
    2448:	20c00117 	ldw	r3,4(r4)
    244c:	1009883a 	mov	r4,r2
    2450:	180b883a 	mov	r5,r3
    2454:	0002d300 	call	2d30 <__truncdfsf2>
    2458:	e0bff815 	stw	r2,-32(fp)
                                    _printfflt(lcd_pr, valflt);
    245c:	e13ffc17 	ldw	r4,-16(fp)
    2460:	e17ff817 	ldw	r5,-32(fp)
    2464:	0001a740 	call	1a74 <_printfflt>
                                    format++;
    2468:	e0bffd17 	ldw	r2,-12(fp)
    246c:	10800044 	addi	r2,r2,1
    2470:	e0bffd15 	stw	r2,-12(fp)
                                }
                            }
                        }
                        break;
    2474:	00002206 	br	2500 <LCD_printf+0x72c>

                default:
                        _printfch(lcd_pr, *format);
    2478:	e0bffd17 	ldw	r2,-12(fp)
    247c:	10800003 	ldbu	r2,0(r2)
    2480:	11403fcc 	andi	r5,r2,255
    2484:	2940201c 	xori	r5,r5,128
    2488:	297fe004 	addi	r5,r5,-128
    248c:	e13ffc17 	ldw	r4,-16(fp)
    2490:	000176c0 	call	176c <_printfch>
                        format++;
    2494:	e0bffd17 	ldw	r2,-12(fp)
    2498:	10800044 	addi	r2,r2,1
    249c:	e0bffd15 	stw	r2,-12(fp)
    24a0:	00001706 	br	2500 <LCD_printf+0x72c>
                        break;
            }  //end check format
        }
        else if(*format < 0x80)  //字符输出
    24a4:	e0bffd17 	ldw	r2,-12(fp)
    24a8:	10800003 	ldbu	r2,0(r2)
    24ac:	10803fcc 	andi	r2,r2,255
    24b0:	1080201c 	xori	r2,r2,128
    24b4:	10bfe004 	addi	r2,r2,-128
    24b8:	1004803a 	cmplt	r2,r2,zero
    24bc:	1000101e 	bne	r2,zero,2500 <LCD_printf+0x72c>
        {
            _printfch(lcd_pr, *format);
    24c0:	e0bffd17 	ldw	r2,-12(fp)
    24c4:	10800003 	ldbu	r2,0(r2)
    24c8:	11403fcc 	andi	r5,r2,255
    24cc:	2940201c 	xori	r5,r5,128
    24d0:	297fe004 	addi	r5,r5,-128
    24d4:	e13ffc17 	ldw	r4,-16(fp)
    24d8:	000176c0 	call	176c <_printfch>
            lcd_pr->cursorx += ASCII_WIDTH;  //下一个字符位置--暂时使用16
    24dc:	e0bffc17 	ldw	r2,-16(fp)
    24e0:	1080000b 	ldhu	r2,0(r2)
    24e4:	10800204 	addi	r2,r2,8
    24e8:	1007883a 	mov	r3,r2
    24ec:	e0bffc17 	ldw	r2,-16(fp)
    24f0:	10c0000d 	sth	r3,0(r2)
            format++;
    24f4:	e0bffd17 	ldw	r2,-12(fp)
    24f8:	10800044 	addi	r2,r2,1
    24fc:	e0bffd15 	stw	r2,-12(fp)

    lcd_pr->min_width = 7;
    lcd_pr->precision = 3;
    lcd_pr->charcnt   = 0;

    while(*format != '\0')  //直到遇到结束符
    2500:	e0bffd17 	ldw	r2,-12(fp)
    2504:	10800003 	ldbu	r2,0(r2)
    2508:	10803fcc 	andi	r2,r2,255
    250c:	1004c03a 	cmpne	r2,r2,zero
    2510:	103e471e 	bne	r2,zero,1e30 <LCD_printf+0x5c>
        }
        //由于没有SD卡字库，暂时不支持中文显示
    }//end while
    va_end(ap);

    return (int)lcd_pr->charcnt;
    2514:	e0bffc17 	ldw	r2,-16(fp)
    2518:	10800343 	ldbu	r2,13(r2)
    251c:	10803fcc 	andi	r2,r2,255
}
    2520:	e037883a 	mov	sp,fp
    2524:	dfc00117 	ldw	ra,4(sp)
    2528:	df000017 	ldw	fp,0(sp)
    252c:	dec00404 	addi	sp,sp,16
    2530:	f800283a 	ret

00002534 <main>:
#include "liuyifei1.h"

char data_tx[10] =
		{ 0x12, 0x34, 0x56, 0x78, 0x9a, 0xbc, 0xde, 0xf0, 0xaa, 0x55 };

int main() {
    2534:	defffe04 	addi	sp,sp,-8
    2538:	df000115 	stw	fp,4(sp)
    253c:	df000104 	addi	fp,sp,4
	int i;
	//printf("Hello from Nios II!\n");

	IOWR_ALTERA_AVALON_UART_DIVISOR(UART_0_BASE, UART_0_FREQ/115200 - 1);
    2540:	00c04234 	movhi	r3,264
    2544:	18c81c04 	addi	r3,r3,8304
    2548:	0080d8c4 	movi	r2,867
    254c:	18800035 	stwio	r2,0(r3)

	while (!(ALTERA_AVALON_UART_STATUS_TRDY_MSK
    2550:	00804234 	movhi	r2,264
    2554:	10881a04 	addi	r2,r2,8296
    2558:	10800037 	ldwio	r2,0(r2)
    255c:	1080100c 	andi	r2,r2,64
    2560:	1005003a 	cmpeq	r2,r2,zero
    2564:	103ffa1e 	bne	r2,zero,2550 <main+0x1c>
			& IORD_ALTERA_AVALON_UART_STATUS(UART_0_BASE)))
		;
	IOWR_ALTERA_AVALON_UART_TXDATA(UART_0_BASE, 0xff);
    2568:	00c04234 	movhi	r3,264
    256c:	18c81904 	addi	r3,r3,8292
    2570:	00803fc4 	movi	r2,255
    2574:	18800035 	stwio	r2,0(r3)

	while (!(ALTERA_AVALON_UART_STATUS_TRDY_MSK
    2578:	00804234 	movhi	r2,264
    257c:	10881a04 	addi	r2,r2,8296
    2580:	10800037 	ldwio	r2,0(r2)
    2584:	1080100c 	andi	r2,r2,64
    2588:	1005003a 	cmpeq	r2,r2,zero
    258c:	103ffa1e 	bne	r2,zero,2578 <main+0x44>
			& IORD_ALTERA_AVALON_UART_STATUS(UART_0_BASE)))
		;
	IOWR_ALTERA_AVALON_UART_TXDATA(UART_0_BASE, 0xd8);
    2590:	00c04234 	movhi	r3,264
    2594:	18c81904 	addi	r3,r3,8292
    2598:	00803604 	movi	r2,216
    259c:	18800035 	stwio	r2,0(r3)

	for (i = 0; i < 640 * 480 * 2; i++) {
    25a0:	e03fff15 	stw	zero,-4(fp)
    25a4:	00001206 	br	25f0 <main+0xbc>
		while (!(ALTERA_AVALON_UART_STATUS_TRDY_MSK
    25a8:	00804234 	movhi	r2,264
    25ac:	10881a04 	addi	r2,r2,8296
    25b0:	10800037 	ldwio	r2,0(r2)
    25b4:	1080100c 	andi	r2,r2,64
    25b8:	1005003a 	cmpeq	r2,r2,zero
    25bc:	103ffa1e 	bne	r2,zero,25a8 <main+0x74>
				& IORD_ALTERA_AVALON_UART_STATUS(UART_0_BASE)))
			;
		IOWR_ALTERA_AVALON_UART_TXDATA(UART_0_BASE, gImage_liuyifei[i]);
    25c0:	e0ffff17 	ldw	r3,-4(fp)
    25c4:	00800034 	movhi	r2,0
    25c8:	109eae04 	addi	r2,r2,31416
    25cc:	10c5883a 	add	r2,r2,r3
    25d0:	10800003 	ldbu	r2,0(r2)
    25d4:	10c03fcc 	andi	r3,r2,255
    25d8:	00804234 	movhi	r2,264
    25dc:	10881904 	addi	r2,r2,8292
    25e0:	10c00035 	stwio	r3,0(r2)
	while (!(ALTERA_AVALON_UART_STATUS_TRDY_MSK
			& IORD_ALTERA_AVALON_UART_STATUS(UART_0_BASE)))
		;
	IOWR_ALTERA_AVALON_UART_TXDATA(UART_0_BASE, 0xd8);

	for (i = 0; i < 640 * 480 * 2; i++) {
    25e4:	e0bfff17 	ldw	r2,-4(fp)
    25e8:	10800044 	addi	r2,r2,1
    25ec:	e0bfff15 	stw	r2,-4(fp)
    25f0:	e0ffff17 	ldw	r3,-4(fp)
    25f4:	00800274 	movhi	r2,9
    25f8:	1097ffc4 	addi	r2,r2,24575
    25fc:	10ffea0e 	bge	r2,r3,25a8 <main+0x74>
				& IORD_ALTERA_AVALON_UART_STATUS(UART_0_BASE)))
			;
		IOWR_ALTERA_AVALON_UART_TXDATA(UART_0_BASE, gImage_liuyifei[i]);
	}

	while (!(ALTERA_AVALON_UART_STATUS_TRDY_MSK
    2600:	00804234 	movhi	r2,264
    2604:	10881a04 	addi	r2,r2,8296
    2608:	10800037 	ldwio	r2,0(r2)
    260c:	1080100c 	andi	r2,r2,64
    2610:	1005003a 	cmpeq	r2,r2,zero
    2614:	103ffa1e 	bne	r2,zero,2600 <main+0xcc>
			& IORD_ALTERA_AVALON_UART_STATUS(UART_0_BASE)))
		;
	IOWR_ALTERA_AVALON_UART_TXDATA(UART_0_BASE, 0xd9);
    2618:	00c04234 	movhi	r3,264
    261c:	18c81904 	addi	r3,r3,8292
    2620:	00803644 	movi	r2,217
    2624:	18800035 	stwio	r2,0(r3)

	while (!(ALTERA_AVALON_UART_STATUS_TRDY_MSK
    2628:	00804234 	movhi	r2,264
    262c:	10881a04 	addi	r2,r2,8296
    2630:	10800037 	ldwio	r2,0(r2)
    2634:	1080100c 	andi	r2,r2,64
    2638:	1005003a 	cmpeq	r2,r2,zero
    263c:	103ffa1e 	bne	r2,zero,2628 <main+0xf4>
			& IORD_ALTERA_AVALON_UART_STATUS(UART_0_BASE)))
		;
	IOWR_ALTERA_AVALON_UART_TXDATA(UART_0_BASE, 0xd9);
    2640:	00c04234 	movhi	r3,264
    2644:	18c81904 	addi	r3,r3,8292
    2648:	00803644 	movi	r2,217
    264c:	18800035 	stwio	r2,0(r3)

	while (!(ALTERA_AVALON_UART_STATUS_TRDY_MSK
    2650:	00804234 	movhi	r2,264
    2654:	10881a04 	addi	r2,r2,8296
    2658:	10800037 	ldwio	r2,0(r2)
    265c:	1080100c 	andi	r2,r2,64
    2660:	1005003a 	cmpeq	r2,r2,zero
    2664:	103ffa1e 	bne	r2,zero,2650 <main+0x11c>
			& IORD_ALTERA_AVALON_UART_STATUS(UART_0_BASE)))
		;
	IOWR_ALTERA_AVALON_UART_TXDATA(UART_0_BASE, 0xd9);
    2668:	00c04234 	movhi	r3,264
    266c:	18c81904 	addi	r3,r3,8292
    2670:	00803644 	movi	r2,217
    2674:	18800035 	stwio	r2,0(r3)

	while (!(ALTERA_AVALON_UART_STATUS_TRDY_MSK
    2678:	00804234 	movhi	r2,264
    267c:	10881a04 	addi	r2,r2,8296
    2680:	10800037 	ldwio	r2,0(r2)
    2684:	1080100c 	andi	r2,r2,64
    2688:	1005003a 	cmpeq	r2,r2,zero
    268c:	103ffa1e 	bne	r2,zero,2678 <main+0x144>
			& IORD_ALTERA_AVALON_UART_STATUS(UART_0_BASE)))
		;
	IOWR_ALTERA_AVALON_UART_TXDATA(UART_0_BASE, 0xd9);
    2690:	00c04234 	movhi	r3,264
    2694:	18c81904 	addi	r3,r3,8292
    2698:	00803644 	movi	r2,217
    269c:	18800035 	stwio	r2,0(r3)

	while (!(ALTERA_AVALON_UART_STATUS_TRDY_MSK
    26a0:	00804234 	movhi	r2,264
    26a4:	10881a04 	addi	r2,r2,8296
    26a8:	10800037 	ldwio	r2,0(r2)
    26ac:	1080100c 	andi	r2,r2,64
    26b0:	1005003a 	cmpeq	r2,r2,zero
    26b4:	103ffa1e 	bne	r2,zero,26a0 <main+0x16c>
			& IORD_ALTERA_AVALON_UART_STATUS(UART_0_BASE)))
		;
	IOWR_ALTERA_AVALON_UART_TXDATA(UART_0_BASE, 0xff);
    26b8:	00c04234 	movhi	r3,264
    26bc:	18c81904 	addi	r3,r3,8292
    26c0:	00803fc4 	movi	r2,255
    26c4:	18800035 	stwio	r2,0(r3)

	while (!(ALTERA_AVALON_UART_STATUS_TRDY_MSK
    26c8:	00804234 	movhi	r2,264
    26cc:	10881a04 	addi	r2,r2,8296
    26d0:	10800037 	ldwio	r2,0(r2)
    26d4:	1080100c 	andi	r2,r2,64
    26d8:	1005003a 	cmpeq	r2,r2,zero
    26dc:	103ffa1e 	bne	r2,zero,26c8 <main+0x194>
			& IORD_ALTERA_AVALON_UART_STATUS(UART_0_BASE)))
		;
	IOWR_ALTERA_AVALON_UART_TXDATA(UART_0_BASE, 0xd9);
    26e0:	00c04234 	movhi	r3,264
    26e4:	18c81904 	addi	r3,r3,8292
    26e8:	00803644 	movi	r2,217
    26ec:	18800035 	stwio	r2,0(r3)
//	  LCD_printf(&lcd_printf, "String Len is: %d\n", (alt_u8)i);
//	  usleep(100000);
//  }

	while (1)
		;
    26f0:	003fff06 	br	26f0 <main+0x1bc>

000026f4 <_fpadd_parts>:
    26f4:	21c00017 	ldw	r7,0(r4)
    26f8:	02000044 	movi	r8,1
    26fc:	41c0332e 	bgeu	r8,r7,27cc <_fpadd_parts+0xd8>
    2700:	28800017 	ldw	r2,0(r5)
    2704:	4080462e 	bgeu	r8,r2,2820 <_fpadd_parts+0x12c>
    2708:	00c00104 	movi	r3,4
    270c:	38c06b26 	beq	r7,r3,28bc <_fpadd_parts+0x1c8>
    2710:	10c04326 	beq	r2,r3,2820 <_fpadd_parts+0x12c>
    2714:	00c00084 	movi	r3,2
    2718:	10c02e26 	beq	r2,r3,27d4 <_fpadd_parts+0xe0>
    271c:	38c04026 	beq	r7,r3,2820 <_fpadd_parts+0x12c>
    2720:	22800217 	ldw	r10,8(r4)
    2724:	28c00217 	ldw	r3,8(r5)
    2728:	23000317 	ldw	r12,12(r4)
    272c:	2a400317 	ldw	r9,12(r5)
    2730:	50cfc83a 	sub	r7,r10,r3
    2734:	3817883a 	mov	r11,r7
    2738:	38004f16 	blt	r7,zero,2878 <_fpadd_parts+0x184>
    273c:	008007c4 	movi	r2,31
    2740:	11c03316 	blt	r2,r7,2810 <_fpadd_parts+0x11c>
    2744:	02c0540e 	bge	zero,r11,2898 <_fpadd_parts+0x1a4>
    2748:	41c4983a 	sll	r2,r8,r7
    274c:	49c6d83a 	srl	r3,r9,r7
    2750:	10bfffc4 	addi	r2,r2,-1
    2754:	4884703a 	and	r2,r9,r2
    2758:	1004c03a 	cmpne	r2,r2,zero
    275c:	1892b03a 	or	r9,r3,r2
    2760:	20c00117 	ldw	r3,4(r4)
    2764:	28800117 	ldw	r2,4(r5)
    2768:	18803c26 	beq	r3,r2,285c <_fpadd_parts+0x168>
    276c:	18002f26 	beq	r3,zero,282c <_fpadd_parts+0x138>
    2770:	4b05c83a 	sub	r2,r9,r12
    2774:	10004216 	blt	r2,zero,2880 <_fpadd_parts+0x18c>
    2778:	32800215 	stw	r10,8(r6)
    277c:	30800315 	stw	r2,12(r6)
    2780:	30000115 	stw	zero,4(r6)
    2784:	31000317 	ldw	r4,12(r6)
    2788:	01d00034 	movhi	r7,16384
    278c:	39ffff84 	addi	r7,r7,-2
    2790:	20bfffc4 	addi	r2,r4,-1
    2794:	2007883a 	mov	r3,r4
    2798:	38800836 	bltu	r7,r2,27bc <_fpadd_parts+0xc8>
    279c:	31400217 	ldw	r5,8(r6)
    27a0:	18c9883a 	add	r4,r3,r3
    27a4:	20bfffc4 	addi	r2,r4,-1
    27a8:	297fffc4 	addi	r5,r5,-1
    27ac:	2007883a 	mov	r3,r4
    27b0:	38bffb2e 	bgeu	r7,r2,27a0 <_fpadd_parts+0xac>
    27b4:	31400215 	stw	r5,8(r6)
    27b8:	31000315 	stw	r4,12(r6)
    27bc:	008000c4 	movi	r2,3
    27c0:	30800015 	stw	r2,0(r6)
    27c4:	20001b16 	blt	r4,zero,2834 <_fpadd_parts+0x140>
    27c8:	3009883a 	mov	r4,r6
    27cc:	2005883a 	mov	r2,r4
    27d0:	f800283a 	ret
    27d4:	38fffd1e 	bne	r7,r3,27cc <_fpadd_parts+0xd8>
    27d8:	31c00015 	stw	r7,0(r6)
    27dc:	20800117 	ldw	r2,4(r4)
    27e0:	30800115 	stw	r2,4(r6)
    27e4:	20c00217 	ldw	r3,8(r4)
    27e8:	30c00215 	stw	r3,8(r6)
    27ec:	20800317 	ldw	r2,12(r4)
    27f0:	30800315 	stw	r2,12(r6)
    27f4:	20c00117 	ldw	r3,4(r4)
    27f8:	28800117 	ldw	r2,4(r5)
    27fc:	3009883a 	mov	r4,r6
    2800:	1886703a 	and	r3,r3,r2
    2804:	2005883a 	mov	r2,r4
    2808:	30c00115 	stw	r3,4(r6)
    280c:	f800283a 	ret
    2810:	1a801716 	blt	r3,r10,2870 <_fpadd_parts+0x17c>
    2814:	1815883a 	mov	r10,r3
    2818:	0019883a 	mov	r12,zero
    281c:	003fd006 	br	2760 <_fpadd_parts+0x6c>
    2820:	2809883a 	mov	r4,r5
    2824:	2005883a 	mov	r2,r4
    2828:	f800283a 	ret
    282c:	6245c83a 	sub	r2,r12,r9
    2830:	003fd006 	br	2774 <_fpadd_parts+0x80>
    2834:	30800217 	ldw	r2,8(r6)
    2838:	2006d07a 	srli	r3,r4,1
    283c:	2100004c 	andi	r4,r4,1
    2840:	10800044 	addi	r2,r2,1
    2844:	1906b03a 	or	r3,r3,r4
    2848:	3009883a 	mov	r4,r6
    284c:	30800215 	stw	r2,8(r6)
    2850:	2005883a 	mov	r2,r4
    2854:	30c00315 	stw	r3,12(r6)
    2858:	f800283a 	ret
    285c:	4b09883a 	add	r4,r9,r12
    2860:	30c00115 	stw	r3,4(r6)
    2864:	32800215 	stw	r10,8(r6)
    2868:	31000315 	stw	r4,12(r6)
    286c:	003fd306 	br	27bc <_fpadd_parts+0xc8>
    2870:	0013883a 	mov	r9,zero
    2874:	003fba06 	br	2760 <_fpadd_parts+0x6c>
    2878:	01cfc83a 	sub	r7,zero,r7
    287c:	003faf06 	br	273c <_fpadd_parts+0x48>
    2880:	0089c83a 	sub	r4,zero,r2
    2884:	00800044 	movi	r2,1
    2888:	30800115 	stw	r2,4(r6)
    288c:	32800215 	stw	r10,8(r6)
    2890:	31000315 	stw	r4,12(r6)
    2894:	003fbb06 	br	2784 <_fpadd_parts+0x90>
    2898:	583fb126 	beq	r11,zero,2760 <_fpadd_parts+0x6c>
    289c:	41c4983a 	sll	r2,r8,r7
    28a0:	61c6d83a 	srl	r3,r12,r7
    28a4:	51d5883a 	add	r10,r10,r7
    28a8:	10bfffc4 	addi	r2,r2,-1
    28ac:	6084703a 	and	r2,r12,r2
    28b0:	1004c03a 	cmpne	r2,r2,zero
    28b4:	1898b03a 	or	r12,r3,r2
    28b8:	003fa906 	br	2760 <_fpadd_parts+0x6c>
    28bc:	11ffc31e 	bne	r2,r7,27cc <_fpadd_parts+0xd8>
    28c0:	28c00117 	ldw	r3,4(r5)
    28c4:	20800117 	ldw	r2,4(r4)
    28c8:	10ffc026 	beq	r2,r3,27cc <_fpadd_parts+0xd8>
    28cc:	010002b4 	movhi	r4,10
    28d0:	2136ae04 	addi	r4,r4,-9544
    28d4:	003fbd06 	br	27cc <_fpadd_parts+0xd8>

000028d8 <__subsf3>:
    28d8:	deffef04 	addi	sp,sp,-68
    28dc:	dcc00f15 	stw	r19,60(sp)
    28e0:	dcc00204 	addi	r19,sp,8
    28e4:	dc400e15 	stw	r17,56(sp)
    28e8:	d9000015 	stw	r4,0(sp)
    28ec:	d9400115 	stw	r5,4(sp)
    28f0:	d809883a 	mov	r4,sp
    28f4:	980b883a 	mov	r5,r19
    28f8:	dc400604 	addi	r17,sp,24
    28fc:	dfc01015 	stw	ra,64(sp)
    2900:	00031680 	call	3168 <__unpack_f>
    2904:	d9000104 	addi	r4,sp,4
    2908:	880b883a 	mov	r5,r17
    290c:	00031680 	call	3168 <__unpack_f>
    2910:	d8800717 	ldw	r2,28(sp)
    2914:	9809883a 	mov	r4,r19
    2918:	880b883a 	mov	r5,r17
    291c:	d9800a04 	addi	r6,sp,40
    2920:	1080005c 	xori	r2,r2,1
    2924:	d8800715 	stw	r2,28(sp)
    2928:	00026f40 	call	26f4 <_fpadd_parts>
    292c:	1009883a 	mov	r4,r2
    2930:	00030080 	call	3008 <__pack_f>
    2934:	dfc01017 	ldw	ra,64(sp)
    2938:	dcc00f17 	ldw	r19,60(sp)
    293c:	dc400e17 	ldw	r17,56(sp)
    2940:	dec01104 	addi	sp,sp,68
    2944:	f800283a 	ret

00002948 <__addsf3>:
    2948:	deffef04 	addi	sp,sp,-68
    294c:	dcc00f15 	stw	r19,60(sp)
    2950:	dcc00204 	addi	r19,sp,8
    2954:	dc400e15 	stw	r17,56(sp)
    2958:	d9000015 	stw	r4,0(sp)
    295c:	d9400115 	stw	r5,4(sp)
    2960:	d809883a 	mov	r4,sp
    2964:	980b883a 	mov	r5,r19
    2968:	dc400604 	addi	r17,sp,24
    296c:	dfc01015 	stw	ra,64(sp)
    2970:	00031680 	call	3168 <__unpack_f>
    2974:	d9000104 	addi	r4,sp,4
    2978:	880b883a 	mov	r5,r17
    297c:	00031680 	call	3168 <__unpack_f>
    2980:	d9800a04 	addi	r6,sp,40
    2984:	9809883a 	mov	r4,r19
    2988:	880b883a 	mov	r5,r17
    298c:	00026f40 	call	26f4 <_fpadd_parts>
    2990:	1009883a 	mov	r4,r2
    2994:	00030080 	call	3008 <__pack_f>
    2998:	dfc01017 	ldw	ra,64(sp)
    299c:	dcc00f17 	ldw	r19,60(sp)
    29a0:	dc400e17 	ldw	r17,56(sp)
    29a4:	dec01104 	addi	sp,sp,68
    29a8:	f800283a 	ret

000029ac <__mulsf3>:
    29ac:	deffef04 	addi	sp,sp,-68
    29b0:	dc400f15 	stw	r17,60(sp)
    29b4:	dc400204 	addi	r17,sp,8
    29b8:	dc000e15 	stw	r16,56(sp)
    29bc:	d9000015 	stw	r4,0(sp)
    29c0:	d9400115 	stw	r5,4(sp)
    29c4:	d809883a 	mov	r4,sp
    29c8:	880b883a 	mov	r5,r17
    29cc:	dc000604 	addi	r16,sp,24
    29d0:	dfc01015 	stw	ra,64(sp)
    29d4:	00031680 	call	3168 <__unpack_f>
    29d8:	d9000104 	addi	r4,sp,4
    29dc:	800b883a 	mov	r5,r16
    29e0:	00031680 	call	3168 <__unpack_f>
    29e4:	d9000217 	ldw	r4,8(sp)
    29e8:	00800044 	movi	r2,1
    29ec:	01400104 	movi	r5,4
    29f0:	1100142e 	bgeu	r2,r4,2a44 <__mulsf3+0x98>
    29f4:	d8c00617 	ldw	r3,24(sp)
    29f8:	10c0052e 	bgeu	r2,r3,2a10 <__mulsf3+0x64>
    29fc:	21400f26 	beq	r4,r5,2a3c <__mulsf3+0x90>
    2a00:	19405d26 	beq	r3,r5,2b78 <__mulsf3+0x1cc>
    2a04:	00800084 	movi	r2,2
    2a08:	20800e26 	beq	r4,r2,2a44 <__mulsf3+0x98>
    2a0c:	1880181e 	bne	r3,r2,2a70 <__mulsf3+0xc4>
    2a10:	d8c00717 	ldw	r3,28(sp)
    2a14:	d8800317 	ldw	r2,12(sp)
    2a18:	8009883a 	mov	r4,r16
    2a1c:	10c4c03a 	cmpne	r2,r2,r3
    2a20:	d8800715 	stw	r2,28(sp)
    2a24:	00030080 	call	3008 <__pack_f>
    2a28:	dfc01017 	ldw	ra,64(sp)
    2a2c:	dc400f17 	ldw	r17,60(sp)
    2a30:	dc000e17 	ldw	r16,56(sp)
    2a34:	dec01104 	addi	sp,sp,68
    2a38:	f800283a 	ret
    2a3c:	00800084 	movi	r2,2
    2a40:	18804f26 	beq	r3,r2,2b80 <__mulsf3+0x1d4>
    2a44:	d8800317 	ldw	r2,12(sp)
    2a48:	d8c00717 	ldw	r3,28(sp)
    2a4c:	8809883a 	mov	r4,r17
    2a50:	10c4c03a 	cmpne	r2,r2,r3
    2a54:	d8800315 	stw	r2,12(sp)
    2a58:	00030080 	call	3008 <__pack_f>
    2a5c:	dfc01017 	ldw	ra,64(sp)
    2a60:	dc400f17 	ldw	r17,60(sp)
    2a64:	dc000e17 	ldw	r16,56(sp)
    2a68:	dec01104 	addi	sp,sp,68
    2a6c:	f800283a 	ret
    2a70:	d8800517 	ldw	r2,20(sp)
    2a74:	da000917 	ldw	r8,36(sp)
    2a78:	0013883a 	mov	r9,zero
    2a7c:	0007883a 	mov	r3,zero
    2a80:	480f883a 	mov	r7,r9
    2a84:	180b883a 	mov	r5,r3
    2a88:	400d883a 	mov	r6,r8
    2a8c:	1009883a 	mov	r4,r2
    2a90:	0002ef00 	call	2ef0 <__muldi3>
    2a94:	da800417 	ldw	r10,16(sp)
    2a98:	d9800817 	ldw	r6,32(sp)
    2a9c:	da400317 	ldw	r9,12(sp)
    2aa0:	52800084 	addi	r10,r10,2
    2aa4:	3295883a 	add	r10,r6,r10
    2aa8:	d9800717 	ldw	r6,28(sp)
    2aac:	180b883a 	mov	r5,r3
    2ab0:	180f883a 	mov	r7,r3
    2ab4:	4992c03a 	cmpne	r9,r9,r6
    2ab8:	da400b15 	stw	r9,44(sp)
    2abc:	1007883a 	mov	r3,r2
    2ac0:	da800c15 	stw	r10,48(sp)
    2ac4:	2800070e 	bge	r5,zero,2ae4 <__mulsf3+0x138>
    2ac8:	2880004c 	andi	r2,r5,1
    2acc:	1005003a 	cmpeq	r2,r2,zero
    2ad0:	500d883a 	mov	r6,r10
    2ad4:	10001e26 	beq	r2,zero,2b50 <__mulsf3+0x1a4>
    2ad8:	380ed07a 	srli	r7,r7,1
    2adc:	31800044 	addi	r6,r6,1
    2ae0:	d9800c15 	stw	r6,48(sp)
    2ae4:	01100034 	movhi	r4,16384
    2ae8:	213fffc4 	addi	r4,r4,-1
    2aec:	21c00b36 	bltu	r4,r7,2b1c <__mulsf3+0x170>
    2af0:	d8800c17 	ldw	r2,48(sp)
    2af4:	00000206 	br	2b00 <__mulsf3+0x154>
    2af8:	18c7883a 	add	r3,r3,r3
    2afc:	21c00636 	bltu	r4,r7,2b18 <__mulsf3+0x16c>
    2b00:	10bfffc4 	addi	r2,r2,-1
    2b04:	39cf883a 	add	r7,r7,r7
    2b08:	183ffb0e 	bge	r3,zero,2af8 <__mulsf3+0x14c>
    2b0c:	39c00054 	ori	r7,r7,1
    2b10:	18c7883a 	add	r3,r3,r3
    2b14:	21fffa2e 	bgeu	r4,r7,2b00 <__mulsf3+0x154>
    2b18:	d8800c15 	stw	r2,48(sp)
    2b1c:	39001fcc 	andi	r4,r7,127
    2b20:	00801004 	movi	r2,64
    2b24:	20800d26 	beq	r4,r2,2b5c <__mulsf3+0x1b0>
    2b28:	008000c4 	movi	r2,3
    2b2c:	d9000a04 	addi	r4,sp,40
    2b30:	d9c00d15 	stw	r7,52(sp)
    2b34:	d8800a15 	stw	r2,40(sp)
    2b38:	00030080 	call	3008 <__pack_f>
    2b3c:	dfc01017 	ldw	ra,64(sp)
    2b40:	dc400f17 	ldw	r17,60(sp)
    2b44:	dc000e17 	ldw	r16,56(sp)
    2b48:	dec01104 	addi	sp,sp,68
    2b4c:	f800283a 	ret
    2b50:	1804d07a 	srli	r2,r3,1
    2b54:	10e00034 	orhi	r3,r2,32768
    2b58:	003fdf06 	br	2ad8 <__mulsf3+0x12c>
    2b5c:	3880200c 	andi	r2,r7,128
    2b60:	103ff11e 	bne	r2,zero,2b28 <__mulsf3+0x17c>
    2b64:	183ff026 	beq	r3,zero,2b28 <__mulsf3+0x17c>
    2b68:	3907883a 	add	r3,r7,r4
    2b6c:	00bfe004 	movi	r2,-128
    2b70:	188e703a 	and	r7,r3,r2
    2b74:	003fec06 	br	2b28 <__mulsf3+0x17c>
    2b78:	00800084 	movi	r2,2
    2b7c:	20bfa41e 	bne	r4,r2,2a10 <__mulsf3+0x64>
    2b80:	010002b4 	movhi	r4,10
    2b84:	2136ae04 	addi	r4,r4,-9544
    2b88:	003fb306 	br	2a58 <__mulsf3+0xac>

00002b8c <__ltsf2>:
    2b8c:	defff304 	addi	sp,sp,-52
    2b90:	dc400b15 	stw	r17,44(sp)
    2b94:	dc400204 	addi	r17,sp,8
    2b98:	dc000a15 	stw	r16,40(sp)
    2b9c:	d9000015 	stw	r4,0(sp)
    2ba0:	d9400115 	stw	r5,4(sp)
    2ba4:	d809883a 	mov	r4,sp
    2ba8:	880b883a 	mov	r5,r17
    2bac:	dc000604 	addi	r16,sp,24
    2bb0:	dfc00c15 	stw	ra,48(sp)
    2bb4:	00031680 	call	3168 <__unpack_f>
    2bb8:	d9000104 	addi	r4,sp,4
    2bbc:	800b883a 	mov	r5,r16
    2bc0:	00031680 	call	3168 <__unpack_f>
    2bc4:	d8800217 	ldw	r2,8(sp)
    2bc8:	00c00044 	movi	r3,1
    2bcc:	180d883a 	mov	r6,r3
    2bd0:	1880062e 	bgeu	r3,r2,2bec <__ltsf2+0x60>
    2bd4:	d8800617 	ldw	r2,24(sp)
    2bd8:	8809883a 	mov	r4,r17
    2bdc:	800b883a 	mov	r5,r16
    2be0:	1880022e 	bgeu	r3,r2,2bec <__ltsf2+0x60>
    2be4:	00032300 	call	3230 <__fpcmp_parts_f>
    2be8:	100d883a 	mov	r6,r2
    2bec:	3005883a 	mov	r2,r6
    2bf0:	dfc00c17 	ldw	ra,48(sp)
    2bf4:	dc400b17 	ldw	r17,44(sp)
    2bf8:	dc000a17 	ldw	r16,40(sp)
    2bfc:	dec00d04 	addi	sp,sp,52
    2c00:	f800283a 	ret

00002c04 <__floatsisf>:
    2c04:	2006d7fa 	srli	r3,r4,31
    2c08:	defffa04 	addi	sp,sp,-24
    2c0c:	008000c4 	movi	r2,3
    2c10:	dfc00515 	stw	ra,20(sp)
    2c14:	dc000415 	stw	r16,16(sp)
    2c18:	d8800015 	stw	r2,0(sp)
    2c1c:	d8c00115 	stw	r3,4(sp)
    2c20:	2000081e 	bne	r4,zero,2c44 <__floatsisf+0x40>
    2c24:	00800084 	movi	r2,2
    2c28:	d8800015 	stw	r2,0(sp)
    2c2c:	d809883a 	mov	r4,sp
    2c30:	00030080 	call	3008 <__pack_f>
    2c34:	dfc00517 	ldw	ra,20(sp)
    2c38:	dc000417 	ldw	r16,16(sp)
    2c3c:	dec00604 	addi	sp,sp,24
    2c40:	f800283a 	ret
    2c44:	00800784 	movi	r2,30
    2c48:	1807003a 	cmpeq	r3,r3,zero
    2c4c:	d8800215 	stw	r2,8(sp)
    2c50:	18000e1e 	bne	r3,zero,2c8c <__floatsisf+0x88>
    2c54:	00a00034 	movhi	r2,32768
    2c58:	20800e26 	beq	r4,r2,2c94 <__floatsisf+0x90>
    2c5c:	0121c83a 	sub	r16,zero,r4
    2c60:	8009883a 	mov	r4,r16
    2c64:	dc000315 	stw	r16,12(sp)
    2c68:	0002f880 	call	2f88 <__clzsi2>
    2c6c:	117fffc4 	addi	r5,r2,-1
    2c70:	017fee0e 	bge	zero,r5,2c2c <__floatsisf+0x28>
    2c74:	d8800217 	ldw	r2,8(sp)
    2c78:	8146983a 	sll	r3,r16,r5
    2c7c:	1145c83a 	sub	r2,r2,r5
    2c80:	d8c00315 	stw	r3,12(sp)
    2c84:	d8800215 	stw	r2,8(sp)
    2c88:	003fe806 	br	2c2c <__floatsisf+0x28>
    2c8c:	2021883a 	mov	r16,r4
    2c90:	003ff306 	br	2c60 <__floatsisf+0x5c>
    2c94:	00b3c034 	movhi	r2,52992
    2c98:	003fe606 	br	2c34 <__floatsisf+0x30>

00002c9c <__fixsfsi>:
    2c9c:	defffa04 	addi	sp,sp,-24
    2ca0:	d9000015 	stw	r4,0(sp)
    2ca4:	d9400104 	addi	r5,sp,4
    2ca8:	d809883a 	mov	r4,sp
    2cac:	dfc00515 	stw	ra,20(sp)
    2cb0:	00031680 	call	3168 <__unpack_f>
    2cb4:	d8c00117 	ldw	r3,4(sp)
    2cb8:	00800084 	movi	r2,2
    2cbc:	1880041e 	bne	r3,r2,2cd0 <__fixsfsi+0x34>
    2cc0:	0005883a 	mov	r2,zero
    2cc4:	dfc00517 	ldw	ra,20(sp)
    2cc8:	dec00604 	addi	sp,sp,24
    2ccc:	f800283a 	ret
    2cd0:	00800044 	movi	r2,1
    2cd4:	10fffa2e 	bgeu	r2,r3,2cc0 <__fixsfsi+0x24>
    2cd8:	00800104 	movi	r2,4
    2cdc:	18800426 	beq	r3,r2,2cf0 <__fixsfsi+0x54>
    2ce0:	d8800317 	ldw	r2,12(sp)
    2ce4:	103ff616 	blt	r2,zero,2cc0 <__fixsfsi+0x24>
    2ce8:	00c00784 	movi	r3,30
    2cec:	1880070e 	bge	r3,r2,2d0c <__fixsfsi+0x70>
    2cf0:	d8800217 	ldw	r2,8(sp)
    2cf4:	10000c1e 	bne	r2,zero,2d28 <__fixsfsi+0x8c>
    2cf8:	00a00034 	movhi	r2,32768
    2cfc:	10bfffc4 	addi	r2,r2,-1
    2d00:	dfc00517 	ldw	ra,20(sp)
    2d04:	dec00604 	addi	sp,sp,24
    2d08:	f800283a 	ret
    2d0c:	1885c83a 	sub	r2,r3,r2
    2d10:	d9000217 	ldw	r4,8(sp)
    2d14:	d8c00417 	ldw	r3,16(sp)
    2d18:	1884d83a 	srl	r2,r3,r2
    2d1c:	203fe926 	beq	r4,zero,2cc4 <__fixsfsi+0x28>
    2d20:	0085c83a 	sub	r2,zero,r2
    2d24:	003fe706 	br	2cc4 <__fixsfsi+0x28>
    2d28:	00a00034 	movhi	r2,32768
    2d2c:	003fe506 	br	2cc4 <__fixsfsi+0x28>

00002d30 <__truncdfsf2>:
    2d30:	defff804 	addi	sp,sp,-32
    2d34:	2005883a 	mov	r2,r4
    2d38:	2807883a 	mov	r3,r5
    2d3c:	d809883a 	mov	r4,sp
    2d40:	d9400204 	addi	r5,sp,8
    2d44:	d8c00115 	stw	r3,4(sp)
    2d48:	d8800015 	stw	r2,0(sp)
    2d4c:	dfc00715 	stw	ra,28(sp)
    2d50:	00033040 	call	3304 <__unpack_d>
    2d54:	d9c00517 	ldw	r7,20(sp)
    2d58:	da000617 	ldw	r8,24(sp)
    2d5c:	02d00034 	movhi	r11,16384
    2d60:	5affffc4 	addi	r11,r11,-1
    2d64:	3812d7ba 	srli	r9,r7,30
    2d68:	401a90ba 	slli	r13,r8,2
    2d6c:	3ac4703a 	and	r2,r7,r11
    2d70:	0007883a 	mov	r3,zero
    2d74:	6a52b03a 	or	r9,r13,r9
    2d78:	10c4b03a 	or	r2,r2,r3
    2d7c:	d9000217 	ldw	r4,8(sp)
    2d80:	d9400317 	ldw	r5,12(sp)
    2d84:	d9800417 	ldw	r6,16(sp)
    2d88:	480f883a 	mov	r7,r9
    2d8c:	10000126 	beq	r2,zero,2d94 <__truncdfsf2+0x64>
    2d90:	49c00054 	ori	r7,r9,1
    2d94:	00032d80 	call	32d8 <__make_fp>
    2d98:	dfc00717 	ldw	ra,28(sp)
    2d9c:	dec00804 	addi	sp,sp,32
    2da0:	f800283a 	ret

00002da4 <udivmodsi4>:
    2da4:	29001b2e 	bgeu	r5,r4,2e14 <udivmodsi4+0x70>
    2da8:	28001a16 	blt	r5,zero,2e14 <udivmodsi4+0x70>
    2dac:	00800044 	movi	r2,1
    2db0:	0007883a 	mov	r3,zero
    2db4:	01c007c4 	movi	r7,31
    2db8:	00000306 	br	2dc8 <udivmodsi4+0x24>
    2dbc:	19c01326 	beq	r3,r7,2e0c <udivmodsi4+0x68>
    2dc0:	18c00044 	addi	r3,r3,1
    2dc4:	28000416 	blt	r5,zero,2dd8 <udivmodsi4+0x34>
    2dc8:	294b883a 	add	r5,r5,r5
    2dcc:	1085883a 	add	r2,r2,r2
    2dd0:	293ffa36 	bltu	r5,r4,2dbc <udivmodsi4+0x18>
    2dd4:	10000d26 	beq	r2,zero,2e0c <udivmodsi4+0x68>
    2dd8:	0007883a 	mov	r3,zero
    2ddc:	21400236 	bltu	r4,r5,2de8 <udivmodsi4+0x44>
    2de0:	2149c83a 	sub	r4,r4,r5
    2de4:	1886b03a 	or	r3,r3,r2
    2de8:	1004d07a 	srli	r2,r2,1
    2dec:	280ad07a 	srli	r5,r5,1
    2df0:	103ffa1e 	bne	r2,zero,2ddc <udivmodsi4+0x38>
    2df4:	30000226 	beq	r6,zero,2e00 <udivmodsi4+0x5c>
    2df8:	2005883a 	mov	r2,r4
    2dfc:	f800283a 	ret
    2e00:	1809883a 	mov	r4,r3
    2e04:	2005883a 	mov	r2,r4
    2e08:	f800283a 	ret
    2e0c:	0007883a 	mov	r3,zero
    2e10:	003ff806 	br	2df4 <udivmodsi4+0x50>
    2e14:	00800044 	movi	r2,1
    2e18:	0007883a 	mov	r3,zero
    2e1c:	003fef06 	br	2ddc <udivmodsi4+0x38>

00002e20 <__divsi3>:
    2e20:	defffe04 	addi	sp,sp,-8
    2e24:	dc000015 	stw	r16,0(sp)
    2e28:	dfc00115 	stw	ra,4(sp)
    2e2c:	0021883a 	mov	r16,zero
    2e30:	20000c16 	blt	r4,zero,2e64 <__divsi3+0x44>
    2e34:	000d883a 	mov	r6,zero
    2e38:	28000e16 	blt	r5,zero,2e74 <__divsi3+0x54>
    2e3c:	0002da40 	call	2da4 <udivmodsi4>
    2e40:	1007883a 	mov	r3,r2
    2e44:	8005003a 	cmpeq	r2,r16,zero
    2e48:	1000011e 	bne	r2,zero,2e50 <__divsi3+0x30>
    2e4c:	00c7c83a 	sub	r3,zero,r3
    2e50:	1805883a 	mov	r2,r3
    2e54:	dfc00117 	ldw	ra,4(sp)
    2e58:	dc000017 	ldw	r16,0(sp)
    2e5c:	dec00204 	addi	sp,sp,8
    2e60:	f800283a 	ret
    2e64:	0109c83a 	sub	r4,zero,r4
    2e68:	04000044 	movi	r16,1
    2e6c:	000d883a 	mov	r6,zero
    2e70:	283ff20e 	bge	r5,zero,2e3c <__divsi3+0x1c>
    2e74:	014bc83a 	sub	r5,zero,r5
    2e78:	8021003a 	cmpeq	r16,r16,zero
    2e7c:	003fef06 	br	2e3c <__divsi3+0x1c>

00002e80 <__modsi3>:
    2e80:	deffff04 	addi	sp,sp,-4
    2e84:	dfc00015 	stw	ra,0(sp)
    2e88:	01800044 	movi	r6,1
    2e8c:	2807883a 	mov	r3,r5
    2e90:	20000416 	blt	r4,zero,2ea4 <__modsi3+0x24>
    2e94:	28000c16 	blt	r5,zero,2ec8 <__modsi3+0x48>
    2e98:	dfc00017 	ldw	ra,0(sp)
    2e9c:	dec00104 	addi	sp,sp,4
    2ea0:	0002da41 	jmpi	2da4 <udivmodsi4>
    2ea4:	0109c83a 	sub	r4,zero,r4
    2ea8:	28000b16 	blt	r5,zero,2ed8 <__modsi3+0x58>
    2eac:	180b883a 	mov	r5,r3
    2eb0:	01800044 	movi	r6,1
    2eb4:	0002da40 	call	2da4 <udivmodsi4>
    2eb8:	0085c83a 	sub	r2,zero,r2
    2ebc:	dfc00017 	ldw	ra,0(sp)
    2ec0:	dec00104 	addi	sp,sp,4
    2ec4:	f800283a 	ret
    2ec8:	014bc83a 	sub	r5,zero,r5
    2ecc:	dfc00017 	ldw	ra,0(sp)
    2ed0:	dec00104 	addi	sp,sp,4
    2ed4:	0002da41 	jmpi	2da4 <udivmodsi4>
    2ed8:	0147c83a 	sub	r3,zero,r5
    2edc:	003ff306 	br	2eac <__modsi3+0x2c>

00002ee0 <__udivsi3>:
    2ee0:	000d883a 	mov	r6,zero
    2ee4:	0002da41 	jmpi	2da4 <udivmodsi4>

00002ee8 <__umodsi3>:
    2ee8:	01800044 	movi	r6,1
    2eec:	0002da41 	jmpi	2da4 <udivmodsi4>

00002ef0 <__muldi3>:
    2ef0:	2011883a 	mov	r8,r4
    2ef4:	427fffcc 	andi	r9,r8,65535
    2ef8:	4018d43a 	srli	r12,r8,16
    2efc:	32bfffcc 	andi	r10,r6,65535
    2f00:	3016d43a 	srli	r11,r6,16
    2f04:	4a85383a 	mul	r2,r9,r10
    2f08:	6295383a 	mul	r10,r12,r10
    2f0c:	4ad3383a 	mul	r9,r9,r11
    2f10:	113fffcc 	andi	r4,r2,65535
    2f14:	1004d43a 	srli	r2,r2,16
    2f18:	4a93883a 	add	r9,r9,r10
    2f1c:	3807883a 	mov	r3,r7
    2f20:	1245883a 	add	r2,r2,r9
    2f24:	280f883a 	mov	r7,r5
    2f28:	180b883a 	mov	r5,r3
    2f2c:	1006943a 	slli	r3,r2,16
    2f30:	defffd04 	addi	sp,sp,-12
    2f34:	dc800215 	stw	r18,8(sp)
    2f38:	1907883a 	add	r3,r3,r4
    2f3c:	dc400115 	stw	r17,4(sp)
    2f40:	dc000015 	stw	r16,0(sp)
    2f44:	4165383a 	mul	r18,r8,r5
    2f48:	31e3383a 	mul	r17,r6,r7
    2f4c:	1012d43a 	srli	r9,r2,16
    2f50:	62d9383a 	mul	r12,r12,r11
    2f54:	181f883a 	mov	r15,r3
    2f58:	1280022e 	bgeu	r2,r10,2f64 <__muldi3+0x74>
    2f5c:	00800074 	movhi	r2,1
    2f60:	6099883a 	add	r12,r12,r2
    2f64:	624d883a 	add	r6,r12,r9
    2f68:	9187883a 	add	r3,r18,r6
    2f6c:	88c7883a 	add	r3,r17,r3
    2f70:	7805883a 	mov	r2,r15
    2f74:	dc800217 	ldw	r18,8(sp)
    2f78:	dc400117 	ldw	r17,4(sp)
    2f7c:	dc000017 	ldw	r16,0(sp)
    2f80:	dec00304 	addi	sp,sp,12
    2f84:	f800283a 	ret

00002f88 <__clzsi2>:
    2f88:	00bfffd4 	movui	r2,65535
    2f8c:	11000e36 	bltu	r2,r4,2fc8 <__clzsi2+0x40>
    2f90:	00803fc4 	movi	r2,255
    2f94:	01400204 	movi	r5,8
    2f98:	0007883a 	mov	r3,zero
    2f9c:	11001036 	bltu	r2,r4,2fe0 <__clzsi2+0x58>
    2fa0:	000b883a 	mov	r5,zero
    2fa4:	20c6d83a 	srl	r3,r4,r3
    2fa8:	008002b4 	movhi	r2,10
    2fac:	10b6b204 	addi	r2,r2,-9528
    2fb0:	1887883a 	add	r3,r3,r2
    2fb4:	18800003 	ldbu	r2,0(r3)
    2fb8:	00c00804 	movi	r3,32
    2fbc:	2885883a 	add	r2,r5,r2
    2fc0:	1885c83a 	sub	r2,r3,r2
    2fc4:	f800283a 	ret
    2fc8:	01400404 	movi	r5,16
    2fcc:	00804034 	movhi	r2,256
    2fd0:	10bfffc4 	addi	r2,r2,-1
    2fd4:	2807883a 	mov	r3,r5
    2fd8:	113ff22e 	bgeu	r2,r4,2fa4 <__clzsi2+0x1c>
    2fdc:	01400604 	movi	r5,24
    2fe0:	2807883a 	mov	r3,r5
    2fe4:	20c6d83a 	srl	r3,r4,r3
    2fe8:	008002b4 	movhi	r2,10
    2fec:	10b6b204 	addi	r2,r2,-9528
    2ff0:	1887883a 	add	r3,r3,r2
    2ff4:	18800003 	ldbu	r2,0(r3)
    2ff8:	00c00804 	movi	r3,32
    2ffc:	2885883a 	add	r2,r5,r2
    3000:	1885c83a 	sub	r2,r3,r2
    3004:	f800283a 	ret

00003008 <__pack_f>:
    3008:	20c00017 	ldw	r3,0(r4)
    300c:	01c00044 	movi	r7,1
    3010:	21800317 	ldw	r6,12(r4)
    3014:	21400117 	ldw	r5,4(r4)
    3018:	38c02d2e 	bgeu	r7,r3,30d0 <__pack_f+0xc8>
    301c:	00800104 	movi	r2,4
    3020:	18802826 	beq	r3,r2,30c4 <__pack_f+0xbc>
    3024:	00800084 	movi	r2,2
    3028:	18800126 	beq	r3,r2,3030 <__pack_f+0x28>
    302c:	3000101e 	bne	r6,zero,3070 <__pack_f+0x68>
    3030:	000d883a 	mov	r6,zero
    3034:	0007883a 	mov	r3,zero
    3038:	19003fcc 	andi	r4,r3,255
    303c:	200895fa 	slli	r4,r4,23
    3040:	00c02034 	movhi	r3,128
    3044:	18ffffc4 	addi	r3,r3,-1
    3048:	30c6703a 	and	r3,r6,r3
    304c:	10a0002c 	andhi	r2,r2,32768
    3050:	10c4b03a 	or	r2,r2,r3
    3054:	280a97fa 	slli	r5,r5,31
    3058:	1104b03a 	or	r2,r2,r4
    305c:	00e00034 	movhi	r3,32768
    3060:	18ffffc4 	addi	r3,r3,-1
    3064:	10c4703a 	and	r2,r2,r3
    3068:	1144b03a 	or	r2,r2,r5
    306c:	f800283a 	ret
    3070:	21000217 	ldw	r4,8(r4)
    3074:	00bfe084 	movi	r2,-126
    3078:	20801b16 	blt	r4,r2,30e8 <__pack_f+0xe0>
    307c:	00801fc4 	movi	r2,127
    3080:	11001016 	blt	r2,r4,30c4 <__pack_f+0xbc>
    3084:	308e703a 	and	r7,r6,r2
    3088:	2087883a 	add	r3,r4,r2
    308c:	00801004 	movi	r2,64
    3090:	38800526 	beq	r7,r2,30a8 <__pack_f+0xa0>
    3094:	31800fc4 	addi	r6,r6,63
    3098:	30000716 	blt	r6,zero,30b8 <__pack_f+0xb0>
    309c:	300490ba 	slli	r2,r6,2
    30a0:	100cd27a 	srli	r6,r2,9
    30a4:	003fe406 	br	3038 <__pack_f+0x30>
    30a8:	3080200c 	andi	r2,r6,128
    30ac:	103ffa26 	beq	r2,zero,3098 <__pack_f+0x90>
    30b0:	31cd883a 	add	r6,r6,r7
    30b4:	003ff806 	br	3098 <__pack_f+0x90>
    30b8:	300cd07a 	srli	r6,r6,1
    30bc:	18c00044 	addi	r3,r3,1
    30c0:	003ff606 	br	309c <__pack_f+0x94>
    30c4:	000d883a 	mov	r6,zero
    30c8:	00ffffc4 	movi	r3,-1
    30cc:	003fda06 	br	3038 <__pack_f+0x30>
    30d0:	31800434 	orhi	r6,r6,16
    30d4:	00802034 	movhi	r2,128
    30d8:	10bfffc4 	addi	r2,r2,-1
    30dc:	308c703a 	and	r6,r6,r2
    30e0:	00ffffc4 	movi	r3,-1
    30e4:	003fd406 	br	3038 <__pack_f+0x30>
    30e8:	1109c83a 	sub	r4,r2,r4
    30ec:	00800644 	movi	r2,25
    30f0:	11001216 	blt	r2,r4,313c <__pack_f+0x134>
    30f4:	3904983a 	sll	r2,r7,r4
    30f8:	3106d83a 	srl	r3,r6,r4
    30fc:	10bfffc4 	addi	r2,r2,-1
    3100:	3084703a 	and	r2,r6,r2
    3104:	1004c03a 	cmpne	r2,r2,zero
    3108:	1886b03a 	or	r3,r3,r2
    310c:	19001fcc 	andi	r4,r3,127
    3110:	00801004 	movi	r2,64
    3114:	20800c26 	beq	r4,r2,3148 <__pack_f+0x140>
    3118:	18c00fc4 	addi	r3,r3,63
    311c:	00900034 	movhi	r2,16384
    3120:	10bfffc4 	addi	r2,r2,-1
    3124:	180cd1fa 	srli	r6,r3,7
    3128:	10c7803a 	cmpltu	r3,r2,r3
    312c:	00802034 	movhi	r2,128
    3130:	10bfffc4 	addi	r2,r2,-1
    3134:	308c703a 	and	r6,r6,r2
    3138:	003fbf06 	br	3038 <__pack_f+0x30>
    313c:	0007883a 	mov	r3,zero
    3140:	000d883a 	mov	r6,zero
    3144:	003ff906 	br	312c <__pack_f+0x124>
    3148:	1880200c 	andi	r2,r3,128
    314c:	10000126 	beq	r2,zero,3154 <__pack_f+0x14c>
    3150:	1907883a 	add	r3,r3,r4
    3154:	180cd1fa 	srli	r6,r3,7
    3158:	00900034 	movhi	r2,16384
    315c:	10bfffc4 	addi	r2,r2,-1
    3160:	10c7803a 	cmpltu	r3,r2,r3
    3164:	003ff106 	br	312c <__pack_f+0x124>

00003168 <__unpack_f>:
    3168:	21800017 	ldw	r6,0(r4)
    316c:	00c02034 	movhi	r3,128
    3170:	18ffffc4 	addi	r3,r3,-1
    3174:	3004d5fa 	srli	r2,r6,23
    3178:	3008d7fa 	srli	r4,r6,31
    317c:	30ce703a 	and	r7,r6,r3
    3180:	10c03fcc 	andi	r3,r2,255
    3184:	29000115 	stw	r4,4(r5)
    3188:	1800131e 	bne	r3,zero,31d8 <__unpack_f+0x70>
    318c:	38000f26 	beq	r7,zero,31cc <__unpack_f+0x64>
    3190:	380691fa 	slli	r3,r7,7
    3194:	01bfe084 	movi	r6,-126
    3198:	008000c4 	movi	r2,3
    319c:	01100034 	movhi	r4,16384
    31a0:	213fffc4 	addi	r4,r4,-1
    31a4:	28800015 	stw	r2,0(r5)
    31a8:	29800215 	stw	r6,8(r5)
    31ac:	20c00536 	bltu	r4,r3,31c4 <__unpack_f+0x5c>
    31b0:	3005883a 	mov	r2,r6
    31b4:	18c7883a 	add	r3,r3,r3
    31b8:	10bfffc4 	addi	r2,r2,-1
    31bc:	20fffd2e 	bgeu	r4,r3,31b4 <__unpack_f+0x4c>
    31c0:	28800215 	stw	r2,8(r5)
    31c4:	28c00315 	stw	r3,12(r5)
    31c8:	f800283a 	ret
    31cc:	00800084 	movi	r2,2
    31d0:	28800015 	stw	r2,0(r5)
    31d4:	f800283a 	ret
    31d8:	00803fc4 	movi	r2,255
    31dc:	18800826 	beq	r3,r2,3200 <__unpack_f+0x98>
    31e0:	380491fa 	slli	r2,r7,7
    31e4:	18ffe044 	addi	r3,r3,-127
    31e8:	28c00215 	stw	r3,8(r5)
    31ec:	10900034 	orhi	r2,r2,16384
    31f0:	28800315 	stw	r2,12(r5)
    31f4:	008000c4 	movi	r2,3
    31f8:	28800015 	stw	r2,0(r5)
    31fc:	f800283a 	ret
    3200:	3800031e 	bne	r7,zero,3210 <__unpack_f+0xa8>
    3204:	00800104 	movi	r2,4
    3208:	28800015 	stw	r2,0(r5)
    320c:	f800283a 	ret
    3210:	3080042c 	andhi	r2,r6,16
    3214:	10000426 	beq	r2,zero,3228 <__unpack_f+0xc0>
    3218:	00800044 	movi	r2,1
    321c:	28800015 	stw	r2,0(r5)
    3220:	29c00315 	stw	r7,12(r5)
    3224:	f800283a 	ret
    3228:	28000015 	stw	zero,0(r5)
    322c:	003ffc06 	br	3220 <__unpack_f+0xb8>

00003230 <__fpcmp_parts_f>:
    3230:	21800017 	ldw	r6,0(r4)
    3234:	00c00044 	movi	r3,1
    3238:	19800a2e 	bgeu	r3,r6,3264 <__fpcmp_parts_f+0x34>
    323c:	28800017 	ldw	r2,0(r5)
    3240:	1880082e 	bgeu	r3,r2,3264 <__fpcmp_parts_f+0x34>
    3244:	00c00104 	movi	r3,4
    3248:	30c01e26 	beq	r6,r3,32c4 <__fpcmp_parts_f+0x94>
    324c:	10c01a26 	beq	r2,r3,32b8 <__fpcmp_parts_f+0x88>
    3250:	00c00084 	movi	r3,2
    3254:	30c00526 	beq	r6,r3,326c <__fpcmp_parts_f+0x3c>
    3258:	10c0071e 	bne	r2,r3,3278 <__fpcmp_parts_f+0x48>
    325c:	20800117 	ldw	r2,4(r4)
    3260:	1000091e 	bne	r2,zero,3288 <__fpcmp_parts_f+0x58>
    3264:	00800044 	movi	r2,1
    3268:	f800283a 	ret
    326c:	10c0121e 	bne	r2,r3,32b8 <__fpcmp_parts_f+0x88>
    3270:	0005883a 	mov	r2,zero
    3274:	f800283a 	ret
    3278:	20c00117 	ldw	r3,4(r4)
    327c:	28800117 	ldw	r2,4(r5)
    3280:	18800326 	beq	r3,r2,3290 <__fpcmp_parts_f+0x60>
    3284:	183ff726 	beq	r3,zero,3264 <__fpcmp_parts_f+0x34>
    3288:	00bfffc4 	movi	r2,-1
    328c:	f800283a 	ret
    3290:	21800217 	ldw	r6,8(r4)
    3294:	28800217 	ldw	r2,8(r5)
    3298:	11bffa16 	blt	r2,r6,3284 <__fpcmp_parts_f+0x54>
    329c:	30800416 	blt	r6,r2,32b0 <__fpcmp_parts_f+0x80>
    32a0:	21000317 	ldw	r4,12(r4)
    32a4:	29400317 	ldw	r5,12(r5)
    32a8:	293ff636 	bltu	r5,r4,3284 <__fpcmp_parts_f+0x54>
    32ac:	217ff02e 	bgeu	r4,r5,3270 <__fpcmp_parts_f+0x40>
    32b0:	183fec1e 	bne	r3,zero,3264 <__fpcmp_parts_f+0x34>
    32b4:	003ff406 	br	3288 <__fpcmp_parts_f+0x58>
    32b8:	28800117 	ldw	r2,4(r5)
    32bc:	103fe91e 	bne	r2,zero,3264 <__fpcmp_parts_f+0x34>
    32c0:	003ff106 	br	3288 <__fpcmp_parts_f+0x58>
    32c4:	11bfe51e 	bne	r2,r6,325c <__fpcmp_parts_f+0x2c>
    32c8:	28c00117 	ldw	r3,4(r5)
    32cc:	20800117 	ldw	r2,4(r4)
    32d0:	1885c83a 	sub	r2,r3,r2
    32d4:	f800283a 	ret

000032d8 <__make_fp>:
    32d8:	defffb04 	addi	sp,sp,-20
    32dc:	d9000015 	stw	r4,0(sp)
    32e0:	d809883a 	mov	r4,sp
    32e4:	dfc00415 	stw	ra,16(sp)
    32e8:	d9400115 	stw	r5,4(sp)
    32ec:	d9800215 	stw	r6,8(sp)
    32f0:	d9c00315 	stw	r7,12(sp)
    32f4:	00030080 	call	3008 <__pack_f>
    32f8:	dfc00417 	ldw	ra,16(sp)
    32fc:	dec00504 	addi	sp,sp,20
    3300:	f800283a 	ret

00003304 <__unpack_d>:
    3304:	20c00117 	ldw	r3,4(r4)
    3308:	22400017 	ldw	r9,0(r4)
    330c:	00800434 	movhi	r2,16
    3310:	10bfffc4 	addi	r2,r2,-1
    3314:	1808d53a 	srli	r4,r3,20
    3318:	180cd7fa 	srli	r6,r3,31
    331c:	1894703a 	and	r10,r3,r2
    3320:	2201ffcc 	andi	r8,r4,2047
    3324:	281b883a 	mov	r13,r5
    3328:	4817883a 	mov	r11,r9
    332c:	29800115 	stw	r6,4(r5)
    3330:	5019883a 	mov	r12,r10
    3334:	40001e1e 	bne	r8,zero,33b0 <__unpack_d+0xac>
    3338:	4a84b03a 	or	r2,r9,r10
    333c:	10001926 	beq	r2,zero,33a4 <__unpack_d+0xa0>
    3340:	4804d63a 	srli	r2,r9,24
    3344:	500c923a 	slli	r6,r10,8
    3348:	013f0084 	movi	r4,-1022
    334c:	00c40034 	movhi	r3,4096
    3350:	18ffffc4 	addi	r3,r3,-1
    3354:	118cb03a 	or	r6,r2,r6
    3358:	008000c4 	movi	r2,3
    335c:	480a923a 	slli	r5,r9,8
    3360:	68800015 	stw	r2,0(r13)
    3364:	69000215 	stw	r4,8(r13)
    3368:	19800b36 	bltu	r3,r6,3398 <__unpack_d+0x94>
    336c:	200f883a 	mov	r7,r4
    3370:	1811883a 	mov	r8,r3
    3374:	2945883a 	add	r2,r5,r5
    3378:	1149803a 	cmpltu	r4,r2,r5
    337c:	3187883a 	add	r3,r6,r6
    3380:	20c9883a 	add	r4,r4,r3
    3384:	100b883a 	mov	r5,r2
    3388:	200d883a 	mov	r6,r4
    338c:	39ffffc4 	addi	r7,r7,-1
    3390:	413ff82e 	bgeu	r8,r4,3374 <__unpack_d+0x70>
    3394:	69c00215 	stw	r7,8(r13)
    3398:	69800415 	stw	r6,16(r13)
    339c:	69400315 	stw	r5,12(r13)
    33a0:	f800283a 	ret
    33a4:	00800084 	movi	r2,2
    33a8:	28800015 	stw	r2,0(r5)
    33ac:	f800283a 	ret
    33b0:	0081ffc4 	movi	r2,2047
    33b4:	40800f26 	beq	r8,r2,33f4 <__unpack_d+0xf0>
    33b8:	480cd63a 	srli	r6,r9,24
    33bc:	5006923a 	slli	r3,r10,8
    33c0:	4804923a 	slli	r2,r9,8
    33c4:	0009883a 	mov	r4,zero
    33c8:	30c6b03a 	or	r3,r6,r3
    33cc:	01440034 	movhi	r5,4096
    33d0:	110cb03a 	or	r6,r2,r4
    33d4:	423f0044 	addi	r8,r8,-1023
    33d8:	194eb03a 	or	r7,r3,r5
    33dc:	008000c4 	movi	r2,3
    33e0:	69c00415 	stw	r7,16(r13)
    33e4:	6a000215 	stw	r8,8(r13)
    33e8:	68800015 	stw	r2,0(r13)
    33ec:	69800315 	stw	r6,12(r13)
    33f0:	f800283a 	ret
    33f4:	4a84b03a 	or	r2,r9,r10
    33f8:	1000031e 	bne	r2,zero,3408 <__unpack_d+0x104>
    33fc:	00800104 	movi	r2,4
    3400:	28800015 	stw	r2,0(r5)
    3404:	f800283a 	ret
    3408:	0009883a 	mov	r4,zero
    340c:	01400234 	movhi	r5,8
    3410:	4904703a 	and	r2,r9,r4
    3414:	5146703a 	and	r3,r10,r5
    3418:	10c4b03a 	or	r2,r2,r3
    341c:	10000526 	beq	r2,zero,3434 <__unpack_d+0x130>
    3420:	00800044 	movi	r2,1
    3424:	68800015 	stw	r2,0(r13)
    3428:	6b000415 	stw	r12,16(r13)
    342c:	6ac00315 	stw	r11,12(r13)
    3430:	f800283a 	ret
    3434:	68000015 	stw	zero,0(r13)
    3438:	003ffb06 	br	3428 <__unpack_d+0x124>

0000343c <alt_main>:
 * devices/filesystems/components in the system; and call the entry point for
 * the users application, i.e. main().
 */

void alt_main (void)
{
    343c:	defffd04 	addi	sp,sp,-12
    3440:	dfc00215 	stw	ra,8(sp)
    3444:	df000115 	stw	fp,4(sp)
    3448:	df000104 	addi	fp,sp,4
#endif

  /* ALT LOG - please see HAL/sys/alt_log_printf.h for details */
  ALT_LOG_PRINT_BOOT("[alt_main.c] Entering alt_main, calling alt_irq_init.\r\n");
  /* Initialize the interrupt controller. */
  alt_irq_init (NULL);
    344c:	0009883a 	mov	r4,zero
    3450:	00034a80 	call	34a8 <alt_irq_init>
  ALT_LOG_PRINT_BOOT("[alt_main.c] Done OS Init, calling alt_sem_create.\r\n");
  ALT_SEM_CREATE (&alt_fd_list_lock, 1);

  /* Initialize the device drivers/software components. */
  ALT_LOG_PRINT_BOOT("[alt_main.c] Calling alt_sys_init.\r\n");
  alt_sys_init();
    3454:	00034dc0 	call	34dc <alt_sys_init>
   * devices be present (not equal to /dev/null) and if direct drivers
   * aren't being used.
   */

    ALT_LOG_PRINT_BOOT("[alt_main.c] Redirecting IO.\r\n");
    alt_io_redirect(ALT_STDOUT, ALT_STDIN, ALT_STDERR);
    3458:	010002b4 	movhi	r4,10
    345c:	2136f204 	addi	r4,r4,-9272
    3460:	014002b4 	movhi	r5,10
    3464:	2976f204 	addi	r5,r5,-9272
    3468:	018002b4 	movhi	r6,10
    346c:	31b6f204 	addi	r6,r6,-9272
    3470:	00057900 	call	5790 <alt_io_redirect>
  /* 
   * Call the C++ constructors 
   */

  ALT_LOG_PRINT_BOOT("[alt_main.c] Calling C++ constructors.\r\n");
  _do_ctors ();
    3474:	00052680 	call	5268 <_do_ctors>
   * redefined as _exit()). This is in the interest of reducing code footprint,
   * in that the atexit() overhead is removed when it's not needed.
   */

  ALT_LOG_PRINT_BOOT("[alt_main.c] Calling atexit.\r\n");
  atexit (_do_dtors);
    3478:	01000034 	movhi	r4,0
    347c:	2114b304 	addi	r4,r4,21196
    3480:	0005ff00 	call	5ff0 <atexit>
  ALT_LOG_PRINT_BOOT("[alt_main.c] Calling main.\r\n");

#ifdef ALT_NO_EXIT
  main (alt_argc, alt_argv, alt_envp);
#else
  result = main (alt_argc, alt_argv, alt_envp);
    3484:	d1200f17 	ldw	r4,-32708(gp)
    3488:	d1601017 	ldw	r5,-32704(gp)
    348c:	d1a01117 	ldw	r6,-32700(gp)
    3490:	00025340 	call	2534 <main>
    3494:	e0bfff15 	stw	r2,-4(fp)
  close(STDOUT_FILENO);
    3498:	01000044 	movi	r4,1
    349c:	0004fcc0 	call	4fcc <close>
  exit (result);
    34a0:	e13fff17 	ldw	r4,-4(fp)
    34a4:	00060040 	call	6004 <exit>

000034a8 <alt_irq_init>:
 * The "base" parameter is ignored and only
 * present for backwards-compatibility.
 */

void alt_irq_init ( const void* base )
{
    34a8:	defffd04 	addi	sp,sp,-12
    34ac:	dfc00215 	stw	ra,8(sp)
    34b0:	df000115 	stw	fp,4(sp)
    34b4:	df000104 	addi	fp,sp,4
    34b8:	e13fff15 	stw	r4,-4(fp)
    ALTERA_NIOS2_QSYS_IRQ_INIT ( NIOS2, nios2);
    34bc:	0005b2c0 	call	5b2c <altera_nios2_qsys_irq_init>
 * alt_irq_cpu_enable_interrupts() enables the CPU to start taking interrupts.
 */
static ALT_INLINE void ALT_ALWAYS_INLINE 
       alt_irq_cpu_enable_interrupts ()
{
    NIOS2_WRITE_STATUS(NIOS2_STATUS_PIE_MSK
    34c0:	00800044 	movi	r2,1
    34c4:	1001703a 	wrctl	status,r2
    alt_irq_cpu_enable_interrupts();
}
    34c8:	e037883a 	mov	sp,fp
    34cc:	dfc00117 	ldw	ra,4(sp)
    34d0:	df000017 	ldw	fp,0(sp)
    34d4:	dec00204 	addi	sp,sp,8
    34d8:	f800283a 	ret

000034dc <alt_sys_init>:
 * Initialize the non-interrupt controller devices.
 * Called after alt_irq_init().
 */

void alt_sys_init( void )
{
    34dc:	defffe04 	addi	sp,sp,-8
    34e0:	dfc00115 	stw	ra,4(sp)
    34e4:	df000015 	stw	fp,0(sp)
    34e8:	d839883a 	mov	fp,sp
    ALTERA_AVALON_TIMER_INIT ( SYSCLK_TIMER, sysclk_timer);
    ALTERA_AVALON_TIMER_INIT ( TIMESTAMP, timestamp);
    ALTERA_AVALON_EPCS_FLASH_CONTROLLER_INIT ( EPCS, epcs);
    34ec:	010002b4 	movhi	r4,10
    34f0:	21370604 	addi	r4,r4,-9192
    34f4:	00035640 	call	3564 <alt_epcs_flash_init>
    ALTERA_AVALON_UART_INIT ( UART_0, uart_0);
    34f8:	010002b4 	movhi	r4,10
    34fc:	21374204 	addi	r4,r4,-8952
    3500:	000b883a 	mov	r5,zero
    3504:	000d883a 	mov	r6,zero
    3508:	00040400 	call	4040 <altera_avalon_uart_init>
    350c:	010002b4 	movhi	r4,10
    3510:	21373804 	addi	r4,r4,-8992
    3514:	000352c0 	call	352c <alt_dev_reg>
}
    3518:	e037883a 	mov	sp,fp
    351c:	dfc00117 	ldw	ra,4(sp)
    3520:	df000017 	ldw	fp,0(sp)
    3524:	dec00204 	addi	sp,sp,8
    3528:	f800283a 	ret

0000352c <alt_dev_reg>:
 */

extern int alt_fs_reg  (alt_dev* dev); 

static ALT_INLINE int alt_dev_reg (alt_dev* dev)
{
    352c:	defffd04 	addi	sp,sp,-12
    3530:	dfc00215 	stw	ra,8(sp)
    3534:	df000115 	stw	fp,4(sp)
    3538:	df000104 	addi	fp,sp,4
    353c:	e13fff15 	stw	r4,-4(fp)
  extern alt_llist alt_dev_list;

  return alt_dev_llist_insert ((alt_dev_llist*) dev, &alt_dev_list);
    3540:	e13fff17 	ldw	r4,-4(fp)
    3544:	014002b4 	movhi	r5,10
    3548:	2978d604 	addi	r5,r5,-7336
    354c:	00051540 	call	5154 <alt_dev_llist_insert>
}
    3550:	e037883a 	mov	sp,fp
    3554:	dfc00117 	ldw	ra,4(sp)
    3558:	df000017 	ldw	fp,0(sp)
    355c:	dec00204 	addi	sp,sp,8
    3560:	f800283a 	ret

00003564 <alt_epcs_flash_init>:
/*
 * alt_epcs_flash_init
 *
 */
int alt_epcs_flash_init(alt_flash_epcs_dev* flash)
{
    3564:	defffc04 	addi	sp,sp,-16
    3568:	dfc00315 	stw	ra,12(sp)
    356c:	df000215 	stw	fp,8(sp)
    3570:	df000204 	addi	fp,sp,8
    3574:	e13fff15 	stw	r4,-4(fp)
  int ret_code = 0;
    3578:	e03ffe15 	stw	zero,-8(fp)

  /* Set up function pointers and/or data structures as needed. */
  ret_code = alt_epcs_flash_query(flash);
    357c:	e13fff17 	ldw	r4,-4(fp)
    3580:	00035f00 	call	35f0 <alt_epcs_flash_query>
    3584:	e0bffe15 	stw	r2,-8(fp)
  */

  /*
  *  Register this device as a valid flash device type
  */
  if (!ret_code)
    3588:	e0bffe17 	ldw	r2,-8(fp)
    358c:	1004c03a 	cmpne	r2,r2,zero
    3590:	1000031e 	bne	r2,zero,35a0 <alt_epcs_flash_init+0x3c>
    ret_code = alt_flash_device_register(&(flash->dev));
    3594:	e13fff17 	ldw	r4,-4(fp)
    3598:	00035b80 	call	35b8 <alt_flash_device_register>
    359c:	e0bffe15 	stw	r2,-8(fp)

  return ret_code;
    35a0:	e0bffe17 	ldw	r2,-8(fp)
}
    35a4:	e037883a 	mov	sp,fp
    35a8:	dfc00117 	ldw	ra,4(sp)
    35ac:	df000017 	ldw	fp,0(sp)
    35b0:	dec00204 	addi	sp,sp,8
    35b4:	f800283a 	ret

000035b8 <alt_flash_device_register>:

typedef struct alt_flash_dev alt_flash_dev; 
typedef alt_flash_dev alt_flash_fd;

static ALT_INLINE int alt_flash_device_register( alt_flash_fd* fd)
{
    35b8:	defffd04 	addi	sp,sp,-12
    35bc:	dfc00215 	stw	ra,8(sp)
    35c0:	df000115 	stw	fp,4(sp)
    35c4:	df000104 	addi	fp,sp,4
    35c8:	e13fff15 	stw	r4,-4(fp)
  extern alt_llist alt_flash_dev_list;

  return alt_dev_llist_insert ((alt_dev_llist*) fd, &alt_flash_dev_list);
    35cc:	e13fff17 	ldw	r4,-4(fp)
    35d0:	014002b4 	movhi	r5,10
    35d4:	2978da04 	addi	r5,r5,-7320
    35d8:	00051540 	call	5154 <alt_dev_llist_insert>
}
    35dc:	e037883a 	mov	sp,fp
    35e0:	dfc00117 	ldw	ra,4(sp)
    35e4:	df000017 	ldw	fp,0(sp)
    35e8:	dec00204 	addi	sp,sp,8
    35ec:	f800283a 	ret

000035f0 <alt_epcs_flash_query>:


static int alt_epcs_flash_query(alt_flash_epcs_dev* flash)
{
    35f0:	defffc04 	addi	sp,sp,-16
    35f4:	dfc00315 	stw	ra,12(sp)
    35f8:	df000215 	stw	fp,8(sp)
    35fc:	df000204 	addi	fp,sp,8
    3600:	e13fff15 	stw	r4,-4(fp)
  int ret_code = 0;
    3604:	e03ffe15 	stw	zero,-8(fp)
   * reset the device, or whatever, to ensure that
   * it's in a known working state.
  */
  
  /* Disable 4-bytes address mode. */
  flash->four_bytes_mode = 0;
    3608:	e0bfff17 	ldw	r2,-4(fp)
    360c:	10003115 	stw	zero,196(r2)
  
  /* Send the RES command sequence */
  flash->silicon_id =
    3610:	e0bfff17 	ldw	r2,-4(fp)
    3614:	11002d17 	ldw	r4,180(r2)
    3618:	0004e300 	call	4e30 <epcs_read_electronic_signature>
    361c:	10c03fcc 	andi	r3,r2,255
    3620:	e0bfff17 	ldw	r2,-4(fp)
    3624:	10c02f15 	stw	r3,188(r2)
    epcs_read_electronic_signature(flash->register_base);

  /* Fill in all device-specific parameters. */
  if (flash->silicon_id == 0x16) /* EPCS64 */
    3628:	e0bfff17 	ldw	r2,-4(fp)
    362c:	10802f17 	ldw	r2,188(r2)
    3630:	10800598 	cmpnei	r2,r2,22
    3634:	10000a1e 	bne	r2,zero,3660 <alt_epcs_flash_query+0x70>
  {
    flash->dev.region_info[0].region_size = 64 * 1024 * 1024 / 8;
    3638:	e0ffff17 	ldw	r3,-4(fp)
    363c:	00802034 	movhi	r2,128
    3640:	18800e15 	stw	r2,56(r3)
    flash->dev.region_info[0].number_of_blocks = 128;
    3644:	e0ffff17 	ldw	r3,-4(fp)
    3648:	00802004 	movi	r2,128
    364c:	18800f15 	stw	r2,60(r3)
    flash->dev.region_info[0].block_size = 65536;
    3650:	e0ffff17 	ldw	r3,-4(fp)
    3654:	00800074 	movhi	r2,1
    3658:	18801015 	stw	r2,64(r3)
    365c:	00007306 	br	382c <alt_epcs_flash_query+0x23c>
  }
  else if (flash->silicon_id == 0x14) /* EPCS16 */
    3660:	e0bfff17 	ldw	r2,-4(fp)
    3664:	10802f17 	ldw	r2,188(r2)
    3668:	10800518 	cmpnei	r2,r2,20
    366c:	10000a1e 	bne	r2,zero,3698 <alt_epcs_flash_query+0xa8>
  {
    flash->dev.region_info[0].region_size = 16 * 1024 * 1024 / 8;
    3670:	e0ffff17 	ldw	r3,-4(fp)
    3674:	00800834 	movhi	r2,32
    3678:	18800e15 	stw	r2,56(r3)
    flash->dev.region_info[0].number_of_blocks = 32;
    367c:	e0ffff17 	ldw	r3,-4(fp)
    3680:	00800804 	movi	r2,32
    3684:	18800f15 	stw	r2,60(r3)
    flash->dev.region_info[0].block_size = 65536;
    3688:	e0ffff17 	ldw	r3,-4(fp)
    368c:	00800074 	movhi	r2,1
    3690:	18801015 	stw	r2,64(r3)
    3694:	00006506 	br	382c <alt_epcs_flash_query+0x23c>
  }
  else if (flash->silicon_id == 0x13) /* EPCS8 */
    3698:	e0bfff17 	ldw	r2,-4(fp)
    369c:	10802f17 	ldw	r2,188(r2)
    36a0:	108004d8 	cmpnei	r2,r2,19
    36a4:	10000a1e 	bne	r2,zero,36d0 <alt_epcs_flash_query+0xe0>
  {
    flash->dev.region_info[0].region_size = 8 * 1024 * 1024 / 8;
    36a8:	e0ffff17 	ldw	r3,-4(fp)
    36ac:	00800434 	movhi	r2,16
    36b0:	18800e15 	stw	r2,56(r3)
    flash->dev.region_info[0].number_of_blocks = 16;
    36b4:	e0ffff17 	ldw	r3,-4(fp)
    36b8:	00800404 	movi	r2,16
    36bc:	18800f15 	stw	r2,60(r3)
    flash->dev.region_info[0].block_size = 65536;
    36c0:	e0ffff17 	ldw	r3,-4(fp)
    36c4:	00800074 	movhi	r2,1
    36c8:	18801015 	stw	r2,64(r3)
    36cc:	00005706 	br	382c <alt_epcs_flash_query+0x23c>
  }
  else if (flash->silicon_id == 0x12) /* EPCS4 */
    36d0:	e0bfff17 	ldw	r2,-4(fp)
    36d4:	10802f17 	ldw	r2,188(r2)
    36d8:	10800498 	cmpnei	r2,r2,18
    36dc:	10000a1e 	bne	r2,zero,3708 <alt_epcs_flash_query+0x118>
  {
    flash->dev.region_info[0].region_size = 4 * 1024 * 1024 / 8;
    36e0:	e0ffff17 	ldw	r3,-4(fp)
    36e4:	00800234 	movhi	r2,8
    36e8:	18800e15 	stw	r2,56(r3)
    flash->dev.region_info[0].number_of_blocks = 8;
    36ec:	e0ffff17 	ldw	r3,-4(fp)
    36f0:	00800204 	movi	r2,8
    36f4:	18800f15 	stw	r2,60(r3)
    flash->dev.region_info[0].block_size = 65536;
    36f8:	e0ffff17 	ldw	r3,-4(fp)
    36fc:	00800074 	movhi	r2,1
    3700:	18801015 	stw	r2,64(r3)
    3704:	00004906 	br	382c <alt_epcs_flash_query+0x23c>
  }
  else if (flash->silicon_id == 0x10) /* EPCS1 */
    3708:	e0bfff17 	ldw	r2,-4(fp)
    370c:	10802f17 	ldw	r2,188(r2)
    3710:	10800418 	cmpnei	r2,r2,16
    3714:	10000a1e 	bne	r2,zero,3740 <alt_epcs_flash_query+0x150>
  {
    flash->dev.region_info[0].region_size = 1 * 1024 * 1024 / 8;
    3718:	e0ffff17 	ldw	r3,-4(fp)
    371c:	008000b4 	movhi	r2,2
    3720:	18800e15 	stw	r2,56(r3)
    flash->dev.region_info[0].number_of_blocks = 4;
    3724:	e0ffff17 	ldw	r3,-4(fp)
    3728:	00800104 	movi	r2,4
    372c:	18800f15 	stw	r2,60(r3)
    flash->dev.region_info[0].block_size = 32768;
    3730:	e0ffff17 	ldw	r3,-4(fp)
    3734:	00a00014 	movui	r2,32768
    3738:	18801015 	stw	r2,64(r3)
    373c:	00003b06 	br	382c <alt_epcs_flash_query+0x23c>
  {
    /* 
     * Read electronic signature doesn't work for the EPCS128; try 
     * the "Read Device ID" command" before giving up.
     */
    flash->silicon_id = epcs_read_device_id(flash->register_base);
    3740:	e0bfff17 	ldw	r2,-4(fp)
    3744:	11002d17 	ldw	r4,180(r2)
    3748:	0004e9c0 	call	4e9c <epcs_read_device_id>
    374c:	1007883a 	mov	r3,r2
    3750:	e0bfff17 	ldw	r2,-4(fp)
    3754:	10c02f15 	stw	r3,188(r2)
    /*
     * Last byte is the density ID. Note the difference between
     * EPCS128 and EPCQ128 -- arranged differently, though the 
     * least significant byte of each is '0x18'.
     */
    if((flash->silicon_id & 0xFFFFFF) == 0x20BA18) /* EPCQ128 */
    3758:	e0bfff17 	ldw	r2,-4(fp)
    375c:	10c02f17 	ldw	r3,188(r2)
    3760:	00804034 	movhi	r2,256
    3764:	10bfffc4 	addi	r2,r2,-1
    3768:	1886703a 	and	r3,r3,r2
    376c:	00800874 	movhi	r2,33
    3770:	10ae8604 	addi	r2,r2,-17896
    3774:	18800a1e 	bne	r3,r2,37a0 <alt_epcs_flash_query+0x1b0>
    {
      flash->dev.region_info[0].region_size = 128 * 1024 * 1024 / 8;
    3778:	e0ffff17 	ldw	r3,-4(fp)
    377c:	00804034 	movhi	r2,256
    3780:	18800e15 	stw	r2,56(r3)
      flash->dev.region_info[0].number_of_blocks = 256; /* number of sectors */
    3784:	e0ffff17 	ldw	r3,-4(fp)
    3788:	00804004 	movi	r2,256
    378c:	18800f15 	stw	r2,60(r3)
      flash->dev.region_info[0].block_size = 65536;  /* sector size */
    3790:	e0ffff17 	ldw	r3,-4(fp)
    3794:	00800074 	movhi	r2,1
    3798:	18801015 	stw	r2,64(r3)
    379c:	00002306 	br	382c <alt_epcs_flash_query+0x23c>
    }
    else if((flash->silicon_id & 0xFF) == 0x18) /* EPCS128 */
    37a0:	e0bfff17 	ldw	r2,-4(fp)
    37a4:	10802f17 	ldw	r2,188(r2)
    37a8:	10803fcc 	andi	r2,r2,255
    37ac:	10800618 	cmpnei	r2,r2,24
    37b0:	10000a1e 	bne	r2,zero,37dc <alt_epcs_flash_query+0x1ec>
    {
      flash->dev.region_info[0].region_size = 128 * 1024 * 1024 / 8;
    37b4:	e0ffff17 	ldw	r3,-4(fp)
    37b8:	00804034 	movhi	r2,256
    37bc:	18800e15 	stw	r2,56(r3)
      flash->dev.region_info[0].number_of_blocks = 64;
    37c0:	e0ffff17 	ldw	r3,-4(fp)
    37c4:	00801004 	movi	r2,64
    37c8:	18800f15 	stw	r2,60(r3)
      flash->dev.region_info[0].block_size = 262144;
    37cc:	e0ffff17 	ldw	r3,-4(fp)
    37d0:	00800134 	movhi	r2,4
    37d4:	18801015 	stw	r2,64(r3)
    37d8:	00001406 	br	382c <alt_epcs_flash_query+0x23c>
    }
    else if((flash->silicon_id & 0xFF ) == 0x19) /* EPCQ256 */
    37dc:	e0bfff17 	ldw	r2,-4(fp)
    37e0:	10802f17 	ldw	r2,188(r2)
    37e4:	10803fcc 	andi	r2,r2,255
    37e8:	10800658 	cmpnei	r2,r2,25
    37ec:	10000d1e 	bne	r2,zero,3824 <alt_epcs_flash_query+0x234>
    {
      flash->dev.region_info[0].region_size = 256 * 1024 * 1024 / 8;
    37f0:	e0ffff17 	ldw	r3,-4(fp)
    37f4:	00808034 	movhi	r2,512
    37f8:	18800e15 	stw	r2,56(r3)
      flash->dev.region_info[0].number_of_blocks = 512; /* number of sectors */
    37fc:	e0ffff17 	ldw	r3,-4(fp)
    3800:	00808004 	movi	r2,512
    3804:	18800f15 	stw	r2,60(r3)
      flash->dev.region_info[0].block_size = 65536;  /* sector size */
    3808:	e0ffff17 	ldw	r3,-4(fp)
    380c:	00800074 	movhi	r2,1
    3810:	18801015 	stw	r2,64(r3)
       * must first be programmed into the device, though. To complicate things, 
       * other Altera IP expects the chip to be in 3 byte address mode when they 
       * start using it. To be nice, we'll place the device into 4-byte address mode
       * when we need to, and take it back out when we're done.
       */
      flash->four_bytes_mode = 1;
    3814:	e0ffff17 	ldw	r3,-4(fp)
    3818:	00800044 	movi	r2,1
    381c:	18803115 	stw	r2,196(r3)
    3820:	00000206 	br	382c <alt_epcs_flash_query+0x23c>
    }
    else 
    {
      ret_code = -ENODEV; /* No known device found! */
    3824:	00bffb44 	movi	r2,-19
    3828:	e0bffe15 	stw	r2,-8(fp)
    }
  }
  
  flash->size_in_bytes = flash->dev.region_info[0].region_size;
    382c:	e0bfff17 	ldw	r2,-4(fp)
    3830:	10800e17 	ldw	r2,56(r2)
    3834:	1007883a 	mov	r3,r2
    3838:	e0bfff17 	ldw	r2,-4(fp)
    383c:	10c02e15 	stw	r3,184(r2)
  flash->dev.number_of_regions = 1;
    3840:	e0ffff17 	ldw	r3,-4(fp)
    3844:	00800044 	movi	r2,1
    3848:	18800c15 	stw	r2,48(r3)
  flash->dev.region_info[0].offset = 0;
    384c:	e0bfff17 	ldw	r2,-4(fp)
    3850:	10000d15 	stw	zero,52(r2)
  flash->page_size = 256;
    3854:	e0ffff17 	ldw	r3,-4(fp)
    3858:	00804004 	movi	r2,256
    385c:	18803015 	stw	r2,192(r3)

  /* Consider clearing all BP bits here. */
  return ret_code;
    3860:	e0bffe17 	ldw	r2,-8(fp)
}
    3864:	e037883a 	mov	sp,fp
    3868:	dfc00117 	ldw	ra,4(sp)
    386c:	df000017 	ldw	fp,0(sp)
    3870:	dec00204 	addi	sp,sp,8
    3874:	f800283a 	ret

00003878 <alt_epcs_flash_memcmp>:
  alt_flash_dev* flash_info,
  const void* src_buffer,
  int offset,
  size_t n
)
{
    3878:	deffeb04 	addi	sp,sp,-84
    387c:	dfc01415 	stw	ra,80(sp)
    3880:	df001315 	stw	fp,76(sp)
    3884:	df001304 	addi	fp,sp,76
    3888:	e13ff915 	stw	r4,-28(fp)
    388c:	e17ffa15 	stw	r5,-24(fp)
    3890:	e1bffb15 	stw	r6,-20(fp)
    3894:	e1fffc15 	stw	r7,-16(fp)
  /*
   * Compare chunks of memory at a time, for better serial-flash
   * read efficiency.
   */
  alt_u8 chunk_buffer[32];
  const int chunk_size = sizeof(chunk_buffer) / sizeof(*chunk_buffer);
    3898:	00800804 	movi	r2,32
    389c:	e0bff015 	stw	r2,-64(fp)
  int current_offset = 0;
    38a0:	e03fef15 	stw	zero,-68(fp)

  while (n > 0)
    38a4:	00002c06 	br	3958 <alt_epcs_flash_memcmp+0xe0>
  {
    int this_chunk_size = n > chunk_size ? chunk_size : n;
    38a8:	e0bff017 	ldw	r2,-64(fp)
    38ac:	e0bfff15 	stw	r2,-4(fp)
    38b0:	e0fffc17 	ldw	r3,-16(fp)
    38b4:	e0fffe15 	stw	r3,-8(fp)
    38b8:	e0bfff17 	ldw	r2,-4(fp)
    38bc:	e0fffe17 	ldw	r3,-8(fp)
    38c0:	10c0022e 	bgeu	r2,r3,38cc <alt_epcs_flash_memcmp+0x54>
    38c4:	e0bfff17 	ldw	r2,-4(fp)
    38c8:	e0bffe15 	stw	r2,-8(fp)
    38cc:	e0fffe17 	ldw	r3,-8(fp)
    38d0:	e0ffee15 	stw	r3,-72(fp)
    int this_chunk_cmp;

    if (
      alt_epcs_flash_read(
    38d4:	e0fffb17 	ldw	r3,-20(fp)
    38d8:	e0bfef17 	ldw	r2,-68(fp)
    38dc:	188b883a 	add	r5,r3,r2
    38e0:	e1bff104 	addi	r6,fp,-60
    38e4:	e13ff917 	ldw	r4,-28(fp)
    38e8:	e1ffee17 	ldw	r7,-72(fp)
    38ec:	0003eb00 	call	3eb0 <alt_epcs_flash_read>
  while (n > 0)
  {
    int this_chunk_size = n > chunk_size ? chunk_size : n;
    int this_chunk_cmp;

    if (
    38f0:	1004403a 	cmpge	r2,r2,zero
    38f4:	1000031e 	bne	r2,zero,3904 <alt_epcs_flash_memcmp+0x8c>
    {
      /*
      * If the read fails, I'm not sure what the appropriate action is.
      * Compare success seems wrong, so make it compare fail.
      */
      return -1;
    38f8:	00bfffc4 	movi	r2,-1
    38fc:	e0bffd15 	stw	r2,-12(fp)
    3900:	00001906 	br	3968 <alt_epcs_flash_memcmp+0xf0>
    }

    /* Compare this chunk against the source memory buffer. */
    this_chunk_cmp = memcmp(&((unsigned char*)(src_buffer))[current_offset], chunk_buffer, this_chunk_size);
    3904:	e0fffa17 	ldw	r3,-24(fp)
    3908:	e0bfef17 	ldw	r2,-68(fp)
    390c:	1889883a 	add	r4,r3,r2
    3910:	e1bfee17 	ldw	r6,-72(fp)
    3914:	e17ff104 	addi	r5,fp,-60
    3918:	000603c0 	call	603c <memcmp>
    391c:	e0bfed15 	stw	r2,-76(fp)
    if (this_chunk_cmp)
    3920:	e0bfed17 	ldw	r2,-76(fp)
    3924:	1005003a 	cmpeq	r2,r2,zero
    3928:	1000031e 	bne	r2,zero,3938 <alt_epcs_flash_memcmp+0xc0>
    {
      return this_chunk_cmp;
    392c:	e0ffed17 	ldw	r3,-76(fp)
    3930:	e0fffd15 	stw	r3,-12(fp)
    3934:	00000c06 	br	3968 <alt_epcs_flash_memcmp+0xf0>
    }

    n -= this_chunk_size;
    3938:	e0ffee17 	ldw	r3,-72(fp)
    393c:	e0bffc17 	ldw	r2,-16(fp)
    3940:	10c5c83a 	sub	r2,r2,r3
    3944:	e0bffc15 	stw	r2,-16(fp)
    current_offset += this_chunk_size;
    3948:	e0ffef17 	ldw	r3,-68(fp)
    394c:	e0bfee17 	ldw	r2,-72(fp)
    3950:	1885883a 	add	r2,r3,r2
    3954:	e0bfef15 	stw	r2,-68(fp)
   */
  alt_u8 chunk_buffer[32];
  const int chunk_size = sizeof(chunk_buffer) / sizeof(*chunk_buffer);
  int current_offset = 0;

  while (n > 0)
    3958:	e0bffc17 	ldw	r2,-16(fp)
    395c:	1004c03a 	cmpne	r2,r2,zero
    3960:	103fd11e 	bne	r2,zero,38a8 <alt_epcs_flash_memcmp+0x30>
  }

  /*
   * If execution made it to this point, compare is successful.
   */
  return 0;
    3964:	e03ffd15 	stw	zero,-12(fp)
    3968:	e0bffd17 	ldw	r2,-12(fp)
}
    396c:	e037883a 	mov	sp,fp
    3970:	dfc00117 	ldw	ra,4(sp)
    3974:	df000017 	ldw	fp,0(sp)
    3978:	dec00204 	addi	sp,sp,8
    397c:	f800283a 	ret

00003980 <alt_epcs_flash_write>:
 * large buffer to tie up in our programming library, when not all users will
 * want that functionality.
 */
int alt_epcs_flash_write(alt_flash_dev* flash_info, int offset,
                          const void* src_addr, int length)
{
    3980:	defff204 	addi	sp,sp,-56
    3984:	dfc00d15 	stw	ra,52(sp)
    3988:	df000c15 	stw	fp,48(sp)
    398c:	df000c04 	addi	fp,sp,48
    3990:	e13ffa15 	stw	r4,-24(fp)
    3994:	e17ffb15 	stw	r5,-20(fp)
    3998:	e1bffc15 	stw	r6,-16(fp)
    399c:	e1fffd15 	stw	r7,-12(fp)
  int         ret_code = 0;
    39a0:	e03ff915 	stw	zero,-28(fp)
  int         current_offset;

  /*
   * First and foremost which sectors are affected?
   */
  for(i = 0; i < flash_info->number_of_regions; i++)
    39a4:	e03ff815 	stw	zero,-32(fp)
    39a8:	00008b06 	br	3bd8 <alt_epcs_flash_write+0x258>
  {
    /* Is it in this erase block region?*/
    if((offset >= flash_info->region_info[i].offset) &&
    39ac:	e0bff817 	ldw	r2,-32(fp)
    39b0:	e0fffa17 	ldw	r3,-24(fp)
    39b4:	1004913a 	slli	r2,r2,4
    39b8:	10c5883a 	add	r2,r2,r3
    39bc:	10800d04 	addi	r2,r2,52
    39c0:	10c00017 	ldw	r3,0(r2)
    39c4:	e0bffb17 	ldw	r2,-20(fp)
    39c8:	10c08016 	blt	r2,r3,3bcc <alt_epcs_flash_write+0x24c>
    39cc:	e0bff817 	ldw	r2,-32(fp)
    39d0:	e0fffa17 	ldw	r3,-24(fp)
    39d4:	1004913a 	slli	r2,r2,4
    39d8:	10c5883a 	add	r2,r2,r3
    39dc:	10800d04 	addi	r2,r2,52
    39e0:	11000017 	ldw	r4,0(r2)
    39e4:	e0bff817 	ldw	r2,-32(fp)
    39e8:	e0fffa17 	ldw	r3,-24(fp)
    39ec:	1004913a 	slli	r2,r2,4
    39f0:	10c5883a 	add	r2,r2,r3
    39f4:	10800e04 	addi	r2,r2,56
    39f8:	10800017 	ldw	r2,0(r2)
    39fc:	2087883a 	add	r3,r4,r2
    3a00:	e0bffb17 	ldw	r2,-20(fp)
    3a04:	10c0710e 	bge	r2,r3,3bcc <alt_epcs_flash_write+0x24c>
      (offset < (flash_info->region_info[i].offset +
      flash_info->region_info[i].region_size)))
    {
      current_offset = flash_info->region_info[i].offset;
    3a08:	e0bff817 	ldw	r2,-32(fp)
    3a0c:	e0fffa17 	ldw	r3,-24(fp)
    3a10:	1004913a 	slli	r2,r2,4
    3a14:	10c5883a 	add	r2,r2,r3
    3a18:	10800d04 	addi	r2,r2,52
    3a1c:	10800017 	ldw	r2,0(r2)
    3a20:	e0bff515 	stw	r2,-44(fp)

      for(j=0;j<flash_info->region_info[i].number_of_blocks;j++)
    3a24:	e03ff715 	stw	zero,-36(fp)
    3a28:	00006006 	br	3bac <alt_epcs_flash_write+0x22c>
      {
        if ((offset >= current_offset ) &&
    3a2c:	e0fffb17 	ldw	r3,-20(fp)
    3a30:	e0bff517 	ldw	r2,-44(fp)
    3a34:	18805116 	blt	r3,r2,3b7c <alt_epcs_flash_write+0x1fc>
    3a38:	e0bff817 	ldw	r2,-32(fp)
    3a3c:	e0fffa17 	ldw	r3,-24(fp)
    3a40:	1004913a 	slli	r2,r2,4
    3a44:	10c5883a 	add	r2,r2,r3
    3a48:	10801004 	addi	r2,r2,64
    3a4c:	10c00017 	ldw	r3,0(r2)
    3a50:	e0bff517 	ldw	r2,-44(fp)
    3a54:	1887883a 	add	r3,r3,r2
    3a58:	e0bffb17 	ldw	r2,-20(fp)
    3a5c:	10c0470e 	bge	r2,r3,3b7c <alt_epcs_flash_write+0x1fc>
        {
          /*
           * Check if the contents of the block are different
           * from the data we wish to put there
           */
          data_to_write = ( current_offset + flash_info->region_info[i].block_size
    3a60:	e0bff817 	ldw	r2,-32(fp)
    3a64:	e0fffa17 	ldw	r3,-24(fp)
    3a68:	1004913a 	slli	r2,r2,4
    3a6c:	10c5883a 	add	r2,r2,r3
    3a70:	10801004 	addi	r2,r2,64
    3a74:	10c00017 	ldw	r3,0(r2)
    3a78:	e0bff517 	ldw	r2,-44(fp)
    3a7c:	1887883a 	add	r3,r3,r2
    3a80:	e0bffb17 	ldw	r2,-20(fp)
    3a84:	1885c83a 	sub	r2,r3,r2
    3a88:	e0bff615 	stw	r2,-40(fp)
                            - offset);
          data_to_write = MIN(data_to_write, length);
    3a8c:	e0bff617 	ldw	r2,-40(fp)
    3a90:	e0bfff15 	stw	r2,-4(fp)
    3a94:	e0fffd17 	ldw	r3,-12(fp)
    3a98:	e0fffe15 	stw	r3,-8(fp)
    3a9c:	e0bfff17 	ldw	r2,-4(fp)
    3aa0:	e0fffe17 	ldw	r3,-8(fp)
    3aa4:	10c0020e 	bge	r2,r3,3ab0 <alt_epcs_flash_write+0x130>
    3aa8:	e0bfff17 	ldw	r2,-4(fp)
    3aac:	e0bffe15 	stw	r2,-8(fp)
    3ab0:	e0fffe17 	ldw	r3,-8(fp)
    3ab4:	e0fff615 	stw	r3,-40(fp)

          if(alt_epcs_flash_memcmp(flash_info, src_addr, offset, data_to_write))
    3ab8:	e1fff617 	ldw	r7,-40(fp)
    3abc:	e13ffa17 	ldw	r4,-24(fp)
    3ac0:	e17ffc17 	ldw	r5,-16(fp)
    3ac4:	e1bffb17 	ldw	r6,-20(fp)
    3ac8:	00038780 	call	3878 <alt_epcs_flash_memcmp>
    3acc:	1005003a 	cmpeq	r2,r2,zero
    3ad0:	1000131e 	bne	r2,zero,3b20 <alt_epcs_flash_write+0x1a0>
          {
            ret_code = (*flash_info->erase_block)(flash_info, current_offset);
    3ad4:	e0bffa17 	ldw	r2,-24(fp)
    3ad8:	10800817 	ldw	r2,32(r2)
    3adc:	e13ffa17 	ldw	r4,-24(fp)
    3ae0:	e17ff517 	ldw	r5,-44(fp)
    3ae4:	103ee83a 	callr	r2
    3ae8:	e0bff915 	stw	r2,-28(fp)

            if (!ret_code)
    3aec:	e0bff917 	ldw	r2,-28(fp)
    3af0:	1004c03a 	cmpne	r2,r2,zero
    3af4:	10000a1e 	bne	r2,zero,3b20 <alt_epcs_flash_write+0x1a0>
            {
              ret_code = (*flash_info->write_block)(
    3af8:	e0bffa17 	ldw	r2,-24(fp)
    3afc:	10c00917 	ldw	r3,36(r2)
    3b00:	e0bff617 	ldw	r2,-40(fp)
    3b04:	d8800015 	stw	r2,0(sp)
    3b08:	e13ffa17 	ldw	r4,-24(fp)
    3b0c:	e17ff517 	ldw	r5,-44(fp)
    3b10:	e1bffb17 	ldw	r6,-20(fp)
    3b14:	e1fffc17 	ldw	r7,-16(fp)
    3b18:	183ee83a 	callr	r3
    3b1c:	e0bff915 	stw	r2,-28(fp)
                                                  data_to_write);
            }
          }

          /* Was this the last block? */
          if ((length == data_to_write) || ret_code)
    3b20:	e0fffd17 	ldw	r3,-12(fp)
    3b24:	e0bff617 	ldw	r2,-40(fp)
    3b28:	18802f26 	beq	r3,r2,3be8 <alt_epcs_flash_write+0x268>
    3b2c:	e0bff917 	ldw	r2,-28(fp)
    3b30:	1004c03a 	cmpne	r2,r2,zero
    3b34:	10002c1e 	bne	r2,zero,3be8 <alt_epcs_flash_write+0x268>
          {
            goto finished;
          }

          length -= data_to_write;
    3b38:	e0fffd17 	ldw	r3,-12(fp)
    3b3c:	e0bff617 	ldw	r2,-40(fp)
    3b40:	1885c83a 	sub	r2,r3,r2
    3b44:	e0bffd15 	stw	r2,-12(fp)
          offset = current_offset + flash_info->region_info[i].block_size;
    3b48:	e0bff817 	ldw	r2,-32(fp)
    3b4c:	e0fffa17 	ldw	r3,-24(fp)
    3b50:	1004913a 	slli	r2,r2,4
    3b54:	10c5883a 	add	r2,r2,r3
    3b58:	10801004 	addi	r2,r2,64
    3b5c:	10c00017 	ldw	r3,0(r2)
    3b60:	e0bff517 	ldw	r2,-44(fp)
    3b64:	1885883a 	add	r2,r3,r2
    3b68:	e0bffb15 	stw	r2,-20(fp)
          src_addr = (alt_u8*)src_addr + data_to_write;
    3b6c:	e0fffc17 	ldw	r3,-16(fp)
    3b70:	e0bff617 	ldw	r2,-40(fp)
    3b74:	1885883a 	add	r2,r3,r2
    3b78:	e0bffc15 	stw	r2,-16(fp)
        }
        current_offset += flash_info->region_info[i].block_size;
    3b7c:	e0bff817 	ldw	r2,-32(fp)
    3b80:	e0fffa17 	ldw	r3,-24(fp)
    3b84:	1004913a 	slli	r2,r2,4
    3b88:	10c5883a 	add	r2,r2,r3
    3b8c:	10801004 	addi	r2,r2,64
    3b90:	10c00017 	ldw	r3,0(r2)
    3b94:	e0bff517 	ldw	r2,-44(fp)
    3b98:	10c5883a 	add	r2,r2,r3
    3b9c:	e0bff515 	stw	r2,-44(fp)
      (offset < (flash_info->region_info[i].offset +
      flash_info->region_info[i].region_size)))
    {
      current_offset = flash_info->region_info[i].offset;

      for(j=0;j<flash_info->region_info[i].number_of_blocks;j++)
    3ba0:	e0bff717 	ldw	r2,-36(fp)
    3ba4:	10800044 	addi	r2,r2,1
    3ba8:	e0bff715 	stw	r2,-36(fp)
    3bac:	e0bff817 	ldw	r2,-32(fp)
    3bb0:	e0fffa17 	ldw	r3,-24(fp)
    3bb4:	1004913a 	slli	r2,r2,4
    3bb8:	10c5883a 	add	r2,r2,r3
    3bbc:	10800f04 	addi	r2,r2,60
    3bc0:	10c00017 	ldw	r3,0(r2)
    3bc4:	e0bff717 	ldw	r2,-36(fp)
    3bc8:	10ff9816 	blt	r2,r3,3a2c <alt_epcs_flash_write+0xac>
  int         current_offset;

  /*
   * First and foremost which sectors are affected?
   */
  for(i = 0; i < flash_info->number_of_regions; i++)
    3bcc:	e0bff817 	ldw	r2,-32(fp)
    3bd0:	10800044 	addi	r2,r2,1
    3bd4:	e0bff815 	stw	r2,-32(fp)
    3bd8:	e0bffa17 	ldw	r2,-24(fp)
    3bdc:	10c00c17 	ldw	r3,48(r2)
    3be0:	e0bff817 	ldw	r2,-32(fp)
    3be4:	10ff7116 	blt	r2,r3,39ac <alt_epcs_flash_write+0x2c>
      }
    }
  }

finished:
  return ret_code;
    3be8:	e0bff917 	ldw	r2,-28(fp)
}
    3bec:	e037883a 	mov	sp,fp
    3bf0:	dfc00117 	ldw	ra,4(sp)
    3bf4:	df000017 	ldw	fp,0(sp)
    3bf8:	dec00204 	addi	sp,sp,8
    3bfc:	f800283a 	ret

00003c00 <alt_epcs_flash_get_info>:
 *
 *  Pass the table of erase blocks to the user
 */
int alt_epcs_flash_get_info(alt_flash_fd* fd, flash_region** info,
                            int* number_of_regions)
{
    3c00:	defffa04 	addi	sp,sp,-24
    3c04:	df000515 	stw	fp,20(sp)
    3c08:	df000504 	addi	fp,sp,20
    3c0c:	e13ffd15 	stw	r4,-12(fp)
    3c10:	e17ffe15 	stw	r5,-8(fp)
    3c14:	e1bfff15 	stw	r6,-4(fp)
  int ret_code = 0;
    3c18:	e03ffc15 	stw	zero,-16(fp)

  alt_flash_dev* flash = (alt_flash_dev*)fd;
    3c1c:	e0bffd17 	ldw	r2,-12(fp)
    3c20:	e0bffb15 	stw	r2,-20(fp)

  *number_of_regions = flash->number_of_regions;
    3c24:	e0bffb17 	ldw	r2,-20(fp)
    3c28:	10c00c17 	ldw	r3,48(r2)
    3c2c:	e0bfff17 	ldw	r2,-4(fp)
    3c30:	10c00015 	stw	r3,0(r2)

  if (!flash->number_of_regions)
    3c34:	e0bffb17 	ldw	r2,-20(fp)
    3c38:	10800c17 	ldw	r2,48(r2)
    3c3c:	1004c03a 	cmpne	r2,r2,zero
    3c40:	1000031e 	bne	r2,zero,3c50 <alt_epcs_flash_get_info+0x50>
  {
    ret_code = -EIO;
    3c44:	00bffec4 	movi	r2,-5
    3c48:	e0bffc15 	stw	r2,-16(fp)
    3c4c:	00000b06 	br	3c7c <alt_epcs_flash_get_info+0x7c>
  }
  else if (flash->number_of_regions > ALT_MAX_NUMBER_OF_FLASH_REGIONS)
    3c50:	e0bffb17 	ldw	r2,-20(fp)
    3c54:	10800c17 	ldw	r2,48(r2)
    3c58:	10800250 	cmplti	r2,r2,9
    3c5c:	1000031e 	bne	r2,zero,3c6c <alt_epcs_flash_get_info+0x6c>
  {
    ret_code = -ENOMEM;
    3c60:	00bffd04 	movi	r2,-12
    3c64:	e0bffc15 	stw	r2,-16(fp)
    3c68:	00000406 	br	3c7c <alt_epcs_flash_get_info+0x7c>
  }
  else
  {
    *info = &flash->region_info[0];
    3c6c:	e0bffb17 	ldw	r2,-20(fp)
    3c70:	10c00d04 	addi	r3,r2,52
    3c74:	e0bffe17 	ldw	r2,-8(fp)
    3c78:	10c00015 	stw	r3,0(r2)
  }

  return ret_code;
    3c7c:	e0bffc17 	ldw	r2,-16(fp)
}
    3c80:	e037883a 	mov	sp,fp
    3c84:	df000017 	ldw	fp,0(sp)
    3c88:	dec00104 	addi	sp,sp,4
    3c8c:	f800283a 	ret

00003c90 <alt_epcs_flash_erase_block>:
 *
 * Erase the selected erase block ("sector erase", from the POV
 * of the EPCS data sheet).
 */
int alt_epcs_flash_erase_block(alt_flash_dev* flash_info, int block_offset)
{
    3c90:	defffa04 	addi	sp,sp,-24
    3c94:	dfc00515 	stw	ra,20(sp)
    3c98:	df000415 	stw	fp,16(sp)
    3c9c:	df000404 	addi	fp,sp,16
    3ca0:	e13ffe15 	stw	r4,-8(fp)
    3ca4:	e17fff15 	stw	r5,-4(fp)
  int ret_code = 0;
    3ca8:	e03ffd15 	stw	zero,-12(fp)
  alt_flash_epcs_dev *f = (alt_flash_epcs_dev*)flash_info;
    3cac:	e0bffe17 	ldw	r2,-8(fp)
    3cb0:	e0bffc15 	stw	r2,-16(fp)

  ret_code = alt_epcs_test_address(flash_info, block_offset);
    3cb4:	e13ffe17 	ldw	r4,-8(fp)
    3cb8:	e17fff17 	ldw	r5,-4(fp)
    3cbc:	0003d000 	call	3d00 <alt_epcs_test_address>
    3cc0:	e0bffd15 	stw	r2,-12(fp)

  if (ret_code >= 0)
    3cc4:	e0bffd17 	ldw	r2,-12(fp)
    3cc8:	1004803a 	cmplt	r2,r2,zero
    3ccc:	1000061e 	bne	r2,zero,3ce8 <alt_epcs_flash_erase_block+0x58>
  {
    /* Send the Sector Erase command, whose 3 address bytes are anywhere
     * within the chosen sector.
     */
    epcs_sector_erase(f->register_base, block_offset, f->four_bytes_mode);
    3cd0:	e0bffc17 	ldw	r2,-16(fp)
    3cd4:	11002d17 	ldw	r4,180(r2)
    3cd8:	e17fff17 	ldw	r5,-4(fp)
    3cdc:	e0bffc17 	ldw	r2,-16(fp)
    3ce0:	11803117 	ldw	r6,196(r2)
    3ce4:	00049580 	call	4958 <epcs_sector_erase>
  }
  return ret_code;
    3ce8:	e0bffd17 	ldw	r2,-12(fp)
}
    3cec:	e037883a 	mov	sp,fp
    3cf0:	dfc00117 	ldw	ra,4(sp)
    3cf4:	df000017 	ldw	fp,0(sp)
    3cf8:	dec00204 	addi	sp,sp,8
    3cfc:	f800283a 	ret

00003d00 <alt_epcs_test_address>:
}


/* This might be a candidate for optimization.  Precompute the last-address? */
static ALT_INLINE int alt_epcs_test_address(alt_flash_dev* flash_info, int offset)
{
    3d00:	defff904 	addi	sp,sp,-28
    3d04:	df000615 	stw	fp,24(sp)
    3d08:	df000604 	addi	fp,sp,24
    3d0c:	e13ffe15 	stw	r4,-8(fp)
    3d10:	e17fff15 	stw	r5,-4(fp)
  int ret_code = 0;
    3d14:	e03ffd15 	stw	zero,-12(fp)
  /* Error checking:
   * if the block offset is outside of the memory, return -EIO.
   */
  alt_flash_epcs_dev *f = (alt_flash_epcs_dev*)flash_info;
    3d18:	e0bffe17 	ldw	r2,-8(fp)
    3d1c:	e0bffc15 	stw	r2,-16(fp)

  const alt_u32 last_region_index = f->dev.number_of_regions - 1;
    3d20:	e0bffc17 	ldw	r2,-16(fp)
    3d24:	10800c17 	ldw	r2,48(r2)
    3d28:	10bfffc4 	addi	r2,r2,-1
    3d2c:	e0bffb15 	stw	r2,-20(fp)
  alt_u32 last_device_address =
    -1 +
    f->dev.region_info[last_region_index].offset +
    f->dev.region_info[last_region_index].region_size;
    3d30:	e0bffb17 	ldw	r2,-20(fp)
    3d34:	e0fffc17 	ldw	r3,-16(fp)
    3d38:	1004913a 	slli	r2,r2,4
    3d3c:	10c5883a 	add	r2,r2,r3
    3d40:	10800d04 	addi	r2,r2,52
    3d44:	11000017 	ldw	r4,0(r2)
    3d48:	e0bffb17 	ldw	r2,-20(fp)
    3d4c:	e0fffc17 	ldw	r3,-16(fp)
    3d50:	1004913a 	slli	r2,r2,4
    3d54:	10c5883a 	add	r2,r2,r3
    3d58:	10800e04 	addi	r2,r2,56
    3d5c:	10800017 	ldw	r2,0(r2)
    3d60:	2085883a 	add	r2,r4,r2
    3d64:	10bfffc4 	addi	r2,r2,-1
    3d68:	e0bffa15 	stw	r2,-24(fp)

  if (offset > last_device_address)
    3d6c:	e0ffff17 	ldw	r3,-4(fp)
    3d70:	e0bffa17 	ldw	r2,-24(fp)
    3d74:	10c0022e 	bgeu	r2,r3,3d80 <alt_epcs_test_address+0x80>
  {
    /* Someone tried to erase a block outside of this device's range. */
    ret_code = -EIO;
    3d78:	00bffec4 	movi	r2,-5
    3d7c:	e0bffd15 	stw	r2,-12(fp)
  }
  return ret_code;
    3d80:	e0bffd17 	ldw	r2,-12(fp)
}
    3d84:	e037883a 	mov	sp,fp
    3d88:	df000017 	ldw	fp,0(sp)
    3d8c:	dec00104 	addi	sp,sp,4
    3d90:	f800283a 	ret

00003d94 <alt_epcs_flash_write_block>:
 * function type compatibility.
 */
int alt_epcs_flash_write_block(alt_flash_dev* flash_info, int block_offset,
                                      int data_offset, const void* data,
                                      int length)
{
    3d94:	defff204 	addi	sp,sp,-56
    3d98:	dfc00d15 	stw	ra,52(sp)
    3d9c:	df000c15 	stw	fp,48(sp)
    3da0:	df000c04 	addi	fp,sp,48
    3da4:	e13ffa15 	stw	r4,-24(fp)
    3da8:	e17ffb15 	stw	r5,-20(fp)
    3dac:	e1bffc15 	stw	r6,-16(fp)
    3db0:	e1fffd15 	stw	r7,-12(fp)
  int ret_code;
  alt_flash_epcs_dev *f = (alt_flash_epcs_dev*)flash_info;
    3db4:	e0bffa17 	ldw	r2,-24(fp)
    3db8:	e0bff815 	stw	r2,-32(fp)

  int buffer_offset = 0;
    3dbc:	e03ff715 	stw	zero,-36(fp)
  int length_of_current_write;
  ret_code = alt_epcs_test_address(flash_info, data_offset);
    3dc0:	e13ffa17 	ldw	r4,-24(fp)
    3dc4:	e17ffc17 	ldw	r5,-16(fp)
    3dc8:	0003d000 	call	3d00 <alt_epcs_test_address>
    3dcc:	e0bff915 	stw	r2,-28(fp)

  if (ret_code >= 0)
    3dd0:	e0bff917 	ldw	r2,-28(fp)
    3dd4:	1004803a 	cmplt	r2,r2,zero
    3dd8:	10002f1e 	bne	r2,zero,3e98 <alt_epcs_flash_write_block+0x104>
  {

    /* "Block" writes must be broken up into the page writes that
     * the device understands.  Partial page writes are allowed.
     */
    while (length)
    3ddc:	00002b06 	br	3e8c <alt_epcs_flash_write_block+0xf8>
    {
      int next_page_start = (data_offset + f->page_size) & ~(f->page_size - 1);
    3de0:	e0bff817 	ldw	r2,-32(fp)
    3de4:	10c03017 	ldw	r3,192(r2)
    3de8:	e0bffc17 	ldw	r2,-16(fp)
    3dec:	1887883a 	add	r3,r3,r2
    3df0:	e0bff817 	ldw	r2,-32(fp)
    3df4:	10803017 	ldw	r2,192(r2)
    3df8:	0085c83a 	sub	r2,zero,r2
    3dfc:	1884703a 	and	r2,r3,r2
    3e00:	e0bff515 	stw	r2,-44(fp)
      length_of_current_write = MIN(length, next_page_start - data_offset);
    3e04:	e0fff517 	ldw	r3,-44(fp)
    3e08:	e0bffc17 	ldw	r2,-16(fp)
    3e0c:	1885c83a 	sub	r2,r3,r2
    3e10:	e0c00217 	ldw	r3,8(fp)
    3e14:	e0ffff15 	stw	r3,-4(fp)
    3e18:	e0bffe15 	stw	r2,-8(fp)
    3e1c:	e0bfff17 	ldw	r2,-4(fp)
    3e20:	e0fffe17 	ldw	r3,-8(fp)
    3e24:	10c0020e 	bge	r2,r3,3e30 <alt_epcs_flash_write_block+0x9c>
    3e28:	e0bfff17 	ldw	r2,-4(fp)
    3e2c:	e0bffe15 	stw	r2,-8(fp)
    3e30:	e0fffe17 	ldw	r3,-8(fp)
    3e34:	e0fff615 	stw	r3,-40(fp)

      epcs_write_buffer(f->register_base, data_offset, &((const alt_u8*)data)[buffer_offset], length_of_current_write,
    3e38:	e0bff817 	ldw	r2,-32(fp)
    3e3c:	11002d17 	ldw	r4,180(r2)
    3e40:	e0fffd17 	ldw	r3,-12(fp)
    3e44:	e0bff717 	ldw	r2,-36(fp)
    3e48:	188d883a 	add	r6,r3,r2
    3e4c:	e0bff817 	ldw	r2,-32(fp)
    3e50:	10803117 	ldw	r2,196(r2)
    3e54:	d8800015 	stw	r2,0(sp)
    3e58:	e17ffc17 	ldw	r5,-16(fp)
    3e5c:	e1fff617 	ldw	r7,-40(fp)
    3e60:	0004cc00 	call	4cc0 <epcs_write_buffer>
          f->four_bytes_mode);

      length -= length_of_current_write;
    3e64:	e0c00217 	ldw	r3,8(fp)
    3e68:	e0bff617 	ldw	r2,-40(fp)
    3e6c:	1885c83a 	sub	r2,r3,r2
    3e70:	e0800215 	stw	r2,8(fp)
      buffer_offset += length_of_current_write;
    3e74:	e0fff717 	ldw	r3,-36(fp)
    3e78:	e0bff617 	ldw	r2,-40(fp)
    3e7c:	1885883a 	add	r2,r3,r2
    3e80:	e0bff715 	stw	r2,-36(fp)
      data_offset = next_page_start;
    3e84:	e0bff517 	ldw	r2,-44(fp)
    3e88:	e0bffc15 	stw	r2,-16(fp)
  {

    /* "Block" writes must be broken up into the page writes that
     * the device understands.  Partial page writes are allowed.
     */
    while (length)
    3e8c:	e0800217 	ldw	r2,8(fp)
    3e90:	1004c03a 	cmpne	r2,r2,zero
    3e94:	103fd21e 	bne	r2,zero,3de0 <alt_epcs_flash_write_block+0x4c>
      length -= length_of_current_write;
      buffer_offset += length_of_current_write;
      data_offset = next_page_start;
    }
  }
  return ret_code;
    3e98:	e0bff917 	ldw	r2,-28(fp)
}
    3e9c:	e037883a 	mov	sp,fp
    3ea0:	dfc00117 	ldw	ra,4(sp)
    3ea4:	df000017 	ldw	fp,0(sp)
    3ea8:	dec00204 	addi	sp,sp,8
    3eac:	f800283a 	ret

00003eb0 <alt_epcs_flash_read>:
 *  to the beginning.  Reads that start beyond the end of the memory are
 *  flagged as errors with EIO (is there a better error code?).
 */
int alt_epcs_flash_read(alt_flash_dev* flash_info, int offset,
                        void* dest_addr, int length)
{
    3eb0:	defff704 	addi	sp,sp,-36
    3eb4:	dfc00815 	stw	ra,32(sp)
    3eb8:	df000715 	stw	fp,28(sp)
    3ebc:	df000704 	addi	fp,sp,28
    3ec0:	e13ffc15 	stw	r4,-16(fp)
    3ec4:	e17ffd15 	stw	r5,-12(fp)
    3ec8:	e1bffe15 	stw	r6,-8(fp)
    3ecc:	e1ffff15 	stw	r7,-4(fp)
  int ret_code = 0;
    3ed0:	e03ffb15 	stw	zero,-20(fp)

  alt_flash_epcs_dev *f = (alt_flash_epcs_dev*)flash_info;
    3ed4:	e0bffc17 	ldw	r2,-16(fp)
    3ed8:	e0bffa15 	stw	r2,-24(fp)

  ret_code = alt_epcs_test_address(flash_info, offset);
    3edc:	e13ffc17 	ldw	r4,-16(fp)
    3ee0:	e17ffd17 	ldw	r5,-12(fp)
    3ee4:	0003d000 	call	3d00 <alt_epcs_test_address>
    3ee8:	e0bffb15 	stw	r2,-20(fp)

  if (ret_code >= 0)
    3eec:	e0bffb17 	ldw	r2,-20(fp)
    3ef0:	1004803a 	cmplt	r2,r2,zero
    3ef4:	10000e1e 	bne	r2,zero,3f30 <alt_epcs_flash_read+0x80>
  {
    ret_code = epcs_read_buffer(f->register_base, offset, dest_addr, length,
    3ef8:	e0bffa17 	ldw	r2,-24(fp)
    3efc:	11002d17 	ldw	r4,180(r2)
    3f00:	e1bffe17 	ldw	r6,-8(fp)
    3f04:	e0bffa17 	ldw	r2,-24(fp)
    3f08:	10803117 	ldw	r2,196(r2)
    3f0c:	d8800015 	stw	r2,0(sp)
    3f10:	e17ffd17 	ldw	r5,-12(fp)
    3f14:	e1ffff17 	ldw	r7,-4(fp)
    3f18:	0004ac00 	call	4ac0 <epcs_read_buffer>
    3f1c:	e0bffb15 	stw	r2,-20(fp)
                                f->four_bytes_mode);

    /* epcs_read_buffer returns the number of buffers read, but
     * alt_epcs_flash_read returns 0 on success, <0 on failure.
     */
    if (ret_code == length)
    3f20:	e0fffb17 	ldw	r3,-20(fp)
    3f24:	e0bfff17 	ldw	r2,-4(fp)
    3f28:	1880011e 	bne	r3,r2,3f30 <alt_epcs_flash_read+0x80>
    {
      ret_code = 0;
    3f2c:	e03ffb15 	stw	zero,-20(fp)
    }
  }
  return ret_code;
    3f30:	e0bffb17 	ldw	r2,-20(fp)
}
    3f34:	e037883a 	mov	sp,fp
    3f38:	dfc00117 	ldw	ra,4(sp)
    3f3c:	df000017 	ldw	fp,0(sp)
    3f40:	dec00204 	addi	sp,sp,8
    3f44:	f800283a 	ret

00003f48 <altera_avalon_uart_read_fd>:
 *
 */

int 
altera_avalon_uart_read_fd(alt_fd* fd, char* buffer, int space)
{
    3f48:	defffa04 	addi	sp,sp,-24
    3f4c:	dfc00515 	stw	ra,20(sp)
    3f50:	df000415 	stw	fp,16(sp)
    3f54:	df000404 	addi	fp,sp,16
    3f58:	e13ffd15 	stw	r4,-12(fp)
    3f5c:	e17ffe15 	stw	r5,-8(fp)
    3f60:	e1bfff15 	stw	r6,-4(fp)
    altera_avalon_uart_dev* dev = (altera_avalon_uart_dev*) fd->dev; 
    3f64:	e0bffd17 	ldw	r2,-12(fp)
    3f68:	10800017 	ldw	r2,0(r2)
    3f6c:	e0bffc15 	stw	r2,-16(fp)

    return altera_avalon_uart_read(&dev->state, buffer, space,
    3f70:	e0bffc17 	ldw	r2,-16(fp)
    3f74:	11000a04 	addi	r4,r2,40
    3f78:	e0bffd17 	ldw	r2,-12(fp)
    3f7c:	11c00217 	ldw	r7,8(r2)
    3f80:	e17ffe17 	ldw	r5,-8(fp)
    3f84:	e1bfff17 	ldw	r6,-4(fp)
    3f88:	00044400 	call	4440 <altera_avalon_uart_read>
      fd->fd_flags);
}
    3f8c:	e037883a 	mov	sp,fp
    3f90:	dfc00117 	ldw	ra,4(sp)
    3f94:	df000017 	ldw	fp,0(sp)
    3f98:	dec00204 	addi	sp,sp,8
    3f9c:	f800283a 	ret

00003fa0 <altera_avalon_uart_write_fd>:

int 
altera_avalon_uart_write_fd(alt_fd* fd, const char* buffer, int space)
{
    3fa0:	defffa04 	addi	sp,sp,-24
    3fa4:	dfc00515 	stw	ra,20(sp)
    3fa8:	df000415 	stw	fp,16(sp)
    3fac:	df000404 	addi	fp,sp,16
    3fb0:	e13ffd15 	stw	r4,-12(fp)
    3fb4:	e17ffe15 	stw	r5,-8(fp)
    3fb8:	e1bfff15 	stw	r6,-4(fp)
    altera_avalon_uart_dev* dev = (altera_avalon_uart_dev*) fd->dev; 
    3fbc:	e0bffd17 	ldw	r2,-12(fp)
    3fc0:	10800017 	ldw	r2,0(r2)
    3fc4:	e0bffc15 	stw	r2,-16(fp)

    return altera_avalon_uart_write(&dev->state, buffer, space,
    3fc8:	e0bffc17 	ldw	r2,-16(fp)
    3fcc:	11000a04 	addi	r4,r2,40
    3fd0:	e0bffd17 	ldw	r2,-12(fp)
    3fd4:	11c00217 	ldw	r7,8(r2)
    3fd8:	e17ffe17 	ldw	r5,-8(fp)
    3fdc:	e1bfff17 	ldw	r6,-4(fp)
    3fe0:	00046d00 	call	46d0 <altera_avalon_uart_write>
      fd->fd_flags);
}
    3fe4:	e037883a 	mov	sp,fp
    3fe8:	dfc00117 	ldw	ra,4(sp)
    3fec:	df000017 	ldw	fp,0(sp)
    3ff0:	dec00204 	addi	sp,sp,8
    3ff4:	f800283a 	ret

00003ff8 <altera_avalon_uart_close_fd>:

#endif /* ALTERA_AVALON_UART_USE_IOCTL */

int 
altera_avalon_uart_close_fd(alt_fd* fd)
{
    3ff8:	defffc04 	addi	sp,sp,-16
    3ffc:	dfc00315 	stw	ra,12(sp)
    4000:	df000215 	stw	fp,8(sp)
    4004:	df000204 	addi	fp,sp,8
    4008:	e13fff15 	stw	r4,-4(fp)
    altera_avalon_uart_dev* dev = (altera_avalon_uart_dev*) fd->dev; 
    400c:	e0bfff17 	ldw	r2,-4(fp)
    4010:	10800017 	ldw	r2,0(r2)
    4014:	e0bffe15 	stw	r2,-8(fp)

    return altera_avalon_uart_close(&dev->state, fd->fd_flags);
    4018:	e0bffe17 	ldw	r2,-8(fp)
    401c:	11000a04 	addi	r4,r2,40
    4020:	e0bfff17 	ldw	r2,-4(fp)
    4024:	11400217 	ldw	r5,8(r2)
    4028:	00043e00 	call	43e0 <altera_avalon_uart_close>
}
    402c:	e037883a 	mov	sp,fp
    4030:	dfc00117 	ldw	ra,4(sp)
    4034:	df000017 	ldw	fp,0(sp)
    4038:	dec00204 	addi	sp,sp,8
    403c:	f800283a 	ret

00004040 <altera_avalon_uart_init>:
  alt_u32 status);

void 
altera_avalon_uart_init(altera_avalon_uart_state* sp, 
  alt_u32 irq_controller_id,  alt_u32 irq)
{
    4040:	defff704 	addi	sp,sp,-36
    4044:	dfc00815 	stw	ra,32(sp)
    4048:	df000715 	stw	fp,28(sp)
    404c:	df000704 	addi	fp,sp,28
    4050:	e13ffc15 	stw	r4,-16(fp)
    4054:	e17ffd15 	stw	r5,-12(fp)
    4058:	e1bffe15 	stw	r6,-8(fp)
  void* base = sp->base;
    405c:	e0bffc17 	ldw	r2,-16(fp)
    4060:	10800017 	ldw	r2,0(r2)
    4064:	e0bffb15 	stw	r2,-20(fp)
 * HAL.
 */

static ALT_INLINE int ALT_ALWAYS_INLINE alt_no_error (void)
{
  return 0;
    4068:	0005883a 	mov	r2,zero
  /* 
   * Initialise the read and write flags and the semaphores used to 
   * protect access to the circular buffers when running in a multi-threaded
   * environment.
   */
  error = ALT_FLAG_CREATE (&sp->events, 0)    || 
    406c:	1004c03a 	cmpne	r2,r2,zero
    4070:	1000061e 	bne	r2,zero,408c <altera_avalon_uart_init+0x4c>
    4074:	0005883a 	mov	r2,zero
    4078:	1004c03a 	cmpne	r2,r2,zero
    407c:	1000031e 	bne	r2,zero,408c <altera_avalon_uart_init+0x4c>
    4080:	0005883a 	mov	r2,zero
    4084:	1005003a 	cmpeq	r2,r2,zero
    4088:	1000031e 	bne	r2,zero,4098 <altera_avalon_uart_init+0x58>
    408c:	00800044 	movi	r2,1
    4090:	e0bfff15 	stw	r2,-4(fp)
    4094:	00000106 	br	409c <altera_avalon_uart_init+0x5c>
    4098:	e03fff15 	stw	zero,-4(fp)
    409c:	e0bfff17 	ldw	r2,-4(fp)
    40a0:	e0bffa15 	stw	r2,-24(fp)
          ALT_SEM_CREATE (&sp->read_lock, 1)  ||
          ALT_SEM_CREATE (&sp->write_lock, 1);

  if (!error)
    40a4:	e0bffa17 	ldw	r2,-24(fp)
    40a8:	1004c03a 	cmpne	r2,r2,zero
    40ac:	1000111e 	bne	r2,zero,40f4 <altera_avalon_uart_init+0xb4>
  {
    /* enable interrupts at the device */
    sp->ctrl = ALTERA_AVALON_UART_CONTROL_RTS_MSK  |
    40b0:	e0fffc17 	ldw	r3,-16(fp)
    40b4:	00832004 	movi	r2,3200
    40b8:	18800115 	stw	r2,4(r3)
                ALTERA_AVALON_UART_CONTROL_RRDY_MSK |
                ALTERA_AVALON_UART_CONTROL_DCTS_MSK;

    IOWR_ALTERA_AVALON_UART_CONTROL(base, sp->ctrl); 
    40bc:	e0bffb17 	ldw	r2,-20(fp)
    40c0:	11000304 	addi	r4,r2,12
    40c4:	e0bffc17 	ldw	r2,-16(fp)
    40c8:	10800117 	ldw	r2,4(r2)
    40cc:	1007883a 	mov	r3,r2
    40d0:	2005883a 	mov	r2,r4
    40d4:	10c00035 	stwio	r3,0(r2)
  
    /* register the interrupt handler */
#ifdef ALT_ENHANCED_INTERRUPT_API_PRESENT
    alt_ic_isr_register(irq_controller_id, irq, altera_avalon_uart_irq, sp, 
    40d8:	d8000015 	stw	zero,0(sp)
    40dc:	e13ffd17 	ldw	r4,-12(fp)
    40e0:	e17ffe17 	ldw	r5,-8(fp)
    40e4:	01800034 	movhi	r6,0
    40e8:	31904204 	addi	r6,r6,16648
    40ec:	e1fffc17 	ldw	r7,-16(fp)
    40f0:	00054000 	call	5400 <alt_ic_isr_register>
      0x0);
#else
    alt_irq_register (irq, sp, altera_avalon_uart_irq);
#endif  
  }
}
    40f4:	e037883a 	mov	sp,fp
    40f8:	dfc00117 	ldw	ra,4(sp)
    40fc:	df000017 	ldw	fp,0(sp)
    4100:	dec00204 	addi	sp,sp,8
    4104:	f800283a 	ret

00004108 <altera_avalon_uart_irq>:
#ifdef ALT_ENHANCED_INTERRUPT_API_PRESENT
static void altera_avalon_uart_irq(void* context)
#else
static void altera_avalon_uart_irq(void* context, alt_u32 id)
#endif
{
    4108:	defffa04 	addi	sp,sp,-24
    410c:	dfc00515 	stw	ra,20(sp)
    4110:	df000415 	stw	fp,16(sp)
    4114:	df000404 	addi	fp,sp,16
    4118:	e13fff15 	stw	r4,-4(fp)
  alt_u32 status;

  altera_avalon_uart_state* sp = (altera_avalon_uart_state*) context;
    411c:	e0bfff17 	ldw	r2,-4(fp)
    4120:	e0bffd15 	stw	r2,-12(fp)
  void* base               = sp->base;
    4124:	e0bffd17 	ldw	r2,-12(fp)
    4128:	10800017 	ldw	r2,0(r2)
    412c:	e0bffc15 	stw	r2,-16(fp)
  /*
   * Read the status register in order to determine the cause of the
   * interrupt.
   */

  status = IORD_ALTERA_AVALON_UART_STATUS(base);
    4130:	e0bffc17 	ldw	r2,-16(fp)
    4134:	10800204 	addi	r2,r2,8
    4138:	10800037 	ldwio	r2,0(r2)
    413c:	e0bffe15 	stw	r2,-8(fp)

  /* Clear any error flags set at the device */
  IOWR_ALTERA_AVALON_UART_STATUS(base, 0);
    4140:	e0bffc17 	ldw	r2,-16(fp)
    4144:	10800204 	addi	r2,r2,8
    4148:	10000035 	stwio	zero,0(r2)

  /* Dummy read to ensure IRQ is negated before ISR returns */
  IORD_ALTERA_AVALON_UART_STATUS(base);
    414c:	e0bffc17 	ldw	r2,-16(fp)
    4150:	10800204 	addi	r2,r2,8
    4154:	10800037 	ldwio	r2,0(r2)
  
  /* process a read irq */
  if (status & ALTERA_AVALON_UART_STATUS_RRDY_MSK)
    4158:	e0bffe17 	ldw	r2,-8(fp)
    415c:	1080200c 	andi	r2,r2,128
    4160:	1005003a 	cmpeq	r2,r2,zero
    4164:	1000031e 	bne	r2,zero,4174 <altera_avalon_uart_irq+0x6c>
  {
    altera_avalon_uart_rxirq(sp, status);
    4168:	e13ffd17 	ldw	r4,-12(fp)
    416c:	e17ffe17 	ldw	r5,-8(fp)
    4170:	00041a40 	call	41a4 <altera_avalon_uart_rxirq>
  }

  /* process a write irq */
  if (status & (ALTERA_AVALON_UART_STATUS_TRDY_MSK | 
    4174:	e0bffe17 	ldw	r2,-8(fp)
    4178:	1081100c 	andi	r2,r2,1088
    417c:	1005003a 	cmpeq	r2,r2,zero
    4180:	1000031e 	bne	r2,zero,4190 <altera_avalon_uart_irq+0x88>
                  ALTERA_AVALON_UART_STATUS_DCTS_MSK))
  {
    altera_avalon_uart_txirq(sp, status);
    4184:	e13ffd17 	ldw	r4,-12(fp)
    4188:	e17ffe17 	ldw	r5,-8(fp)
    418c:	00042840 	call	4284 <altera_avalon_uart_txirq>
  }
  

}
    4190:	e037883a 	mov	sp,fp
    4194:	dfc00117 	ldw	ra,4(sp)
    4198:	df000017 	ldw	fp,0(sp)
    419c:	dec00204 	addi	sp,sp,8
    41a0:	f800283a 	ret

000041a4 <altera_avalon_uart_rxirq>:
 * the receive circular buffer, and sets the apropriate flags to indicate 
 * that there is data ready to be processed.
 */
static void 
altera_avalon_uart_rxirq(altera_avalon_uart_state* sp, alt_u32 status)
{
    41a4:	defffc04 	addi	sp,sp,-16
    41a8:	df000315 	stw	fp,12(sp)
    41ac:	df000304 	addi	fp,sp,12
    41b0:	e13ffe15 	stw	r4,-8(fp)
    41b4:	e17fff15 	stw	r5,-4(fp)
  alt_u32 next;
  
  /* If there was an error, discard the data */

  if (status & (ALTERA_AVALON_UART_STATUS_PE_MSK | 
    41b8:	e0bfff17 	ldw	r2,-4(fp)
    41bc:	108000cc 	andi	r2,r2,3
    41c0:	1004c03a 	cmpne	r2,r2,zero
    41c4:	10002b1e 	bne	r2,zero,4274 <altera_avalon_uart_rxirq+0xd0>
   * In a multi-threaded environment, set the read event flag to indicate
   * that there is data ready. This is only done if the circular buffer was
   * previously empty.
   */

  if (sp->rx_end == sp->rx_start)
    41c8:	e0bffe17 	ldw	r2,-8(fp)
    41cc:	10800317 	ldw	r2,12(r2)
    ALT_FLAG_POST (sp->events, ALT_UART_READ_RDY, OS_FLAG_SET);
  }

  /* Determine which slot to use next in the circular buffer */

  next = (sp->rx_end + 1) & ALT_AVALON_UART_BUF_MSK;
    41d0:	e0bffe17 	ldw	r2,-8(fp)
    41d4:	10800317 	ldw	r2,12(r2)
    41d8:	10800044 	addi	r2,r2,1
    41dc:	10800fcc 	andi	r2,r2,63
    41e0:	e0bffd15 	stw	r2,-12(fp)

  /* Transfer data from the device to the circular buffer */

  sp->rx_buf[sp->rx_end] = IORD_ALTERA_AVALON_UART_RXDATA(sp->base);
    41e4:	e0bffe17 	ldw	r2,-8(fp)
    41e8:	11000317 	ldw	r4,12(r2)
    41ec:	e0bffe17 	ldw	r2,-8(fp)
    41f0:	10800017 	ldw	r2,0(r2)
    41f4:	10800037 	ldwio	r2,0(r2)
    41f8:	1007883a 	mov	r3,r2
    41fc:	e0bffe17 	ldw	r2,-8(fp)
    4200:	2085883a 	add	r2,r4,r2
    4204:	10800704 	addi	r2,r2,28
    4208:	10c00005 	stb	r3,0(r2)

  sp->rx_end = next;
    420c:	e0fffe17 	ldw	r3,-8(fp)
    4210:	e0bffd17 	ldw	r2,-12(fp)
    4214:	18800315 	stw	r2,12(r3)

  next = (sp->rx_end + 1) & ALT_AVALON_UART_BUF_MSK;
    4218:	e0bffe17 	ldw	r2,-8(fp)
    421c:	10800317 	ldw	r2,12(r2)
    4220:	10800044 	addi	r2,r2,1
    4224:	10800fcc 	andi	r2,r2,63
    4228:	e0bffd15 	stw	r2,-12(fp)
  /*
   * If the cicular buffer was full, disable interrupts. Interrupts will be
   * re-enabled when data is removed from the buffer.
   */

  if (next == sp->rx_start)
    422c:	e0bffe17 	ldw	r2,-8(fp)
    4230:	10c00217 	ldw	r3,8(r2)
    4234:	e0bffd17 	ldw	r2,-12(fp)
    4238:	18800e1e 	bne	r3,r2,4274 <altera_avalon_uart_rxirq+0xd0>
  {
    sp->ctrl &= ~ALTERA_AVALON_UART_CONTROL_RRDY_MSK;
    423c:	e0bffe17 	ldw	r2,-8(fp)
    4240:	10c00117 	ldw	r3,4(r2)
    4244:	00bfdfc4 	movi	r2,-129
    4248:	1886703a 	and	r3,r3,r2
    424c:	e0bffe17 	ldw	r2,-8(fp)
    4250:	10c00115 	stw	r3,4(r2)
    IOWR_ALTERA_AVALON_UART_CONTROL(sp->base, sp->ctrl); 
    4254:	e0bffe17 	ldw	r2,-8(fp)
    4258:	10800017 	ldw	r2,0(r2)
    425c:	11000304 	addi	r4,r2,12
    4260:	e0bffe17 	ldw	r2,-8(fp)
    4264:	10800117 	ldw	r2,4(r2)
    4268:	1007883a 	mov	r3,r2
    426c:	2005883a 	mov	r2,r4
    4270:	10c00035 	stwio	r3,0(r2)
  }   
}
    4274:	e037883a 	mov	sp,fp
    4278:	df000017 	ldw	fp,0(sp)
    427c:	dec00104 	addi	sp,sp,4
    4280:	f800283a 	ret

00004284 <altera_avalon_uart_txirq>:
 * buffer to the device, and sets the apropriate flags to indicate that 
 * there is data ready to be processed.
 */
static void 
altera_avalon_uart_txirq(altera_avalon_uart_state* sp, alt_u32 status)
{
    4284:	defffd04 	addi	sp,sp,-12
    4288:	df000215 	stw	fp,8(sp)
    428c:	df000204 	addi	fp,sp,8
    4290:	e13ffe15 	stw	r4,-8(fp)
    4294:	e17fff15 	stw	r5,-4(fp)
  /* Transfer data if there is some ready to be transfered */

  if (sp->tx_start != sp->tx_end)
    4298:	e0bffe17 	ldw	r2,-8(fp)
    429c:	10c00417 	ldw	r3,16(r2)
    42a0:	e0bffe17 	ldw	r2,-8(fp)
    42a4:	10800517 	ldw	r2,20(r2)
    42a8:	18803626 	beq	r3,r2,4384 <altera_avalon_uart_txirq+0x100>
    /* 
     * If the device is using flow control (i.e. RTS/CTS), then the
     * transmitter is required to throttle if CTS is high.
     */

    if (!(sp->flags & ALT_AVALON_UART_FC) ||
    42ac:	e0bffe17 	ldw	r2,-8(fp)
    42b0:	10800617 	ldw	r2,24(r2)
    42b4:	1080008c 	andi	r2,r2,2
    42b8:	1005003a 	cmpeq	r2,r2,zero
    42bc:	1000041e 	bne	r2,zero,42d0 <altera_avalon_uart_txirq+0x4c>
    42c0:	e0bfff17 	ldw	r2,-4(fp)
    42c4:	1082000c 	andi	r2,r2,2048
    42c8:	1005003a 	cmpeq	r2,r2,zero
    42cc:	10001e1e 	bne	r2,zero,4348 <altera_avalon_uart_txirq+0xc4>
       * In a multi-threaded environment, set the write event flag to indicate
       * that there is space in the circular buffer. This is only done if the
       * buffer was previously empty.
       */

      if (sp->tx_start == ((sp->tx_end + 1) & ALT_AVALON_UART_BUF_MSK))
    42d0:	e0bffe17 	ldw	r2,-8(fp)
    42d4:	10800417 	ldw	r2,16(r2)
                       OS_FLAG_SET);
      }

      /* Write the data to the device */

      IOWR_ALTERA_AVALON_UART_TXDATA(sp->base, sp->tx_buf[sp->tx_start]);
    42d8:	e0bffe17 	ldw	r2,-8(fp)
    42dc:	10800017 	ldw	r2,0(r2)
    42e0:	11000104 	addi	r4,r2,4
    42e4:	e0bffe17 	ldw	r2,-8(fp)
    42e8:	10c00417 	ldw	r3,16(r2)
    42ec:	e0bffe17 	ldw	r2,-8(fp)
    42f0:	1885883a 	add	r2,r3,r2
    42f4:	10801704 	addi	r2,r2,92
    42f8:	10800003 	ldbu	r2,0(r2)
    42fc:	10c03fcc 	andi	r3,r2,255
    4300:	2005883a 	mov	r2,r4
    4304:	10c00035 	stwio	r3,0(r2)

      sp->tx_start = (++sp->tx_start) & ALT_AVALON_UART_BUF_MSK;
    4308:	e0bffe17 	ldw	r2,-8(fp)
    430c:	10800417 	ldw	r2,16(r2)
    4310:	10c00044 	addi	r3,r2,1
    4314:	e0bffe17 	ldw	r2,-8(fp)
    4318:	10c00415 	stw	r3,16(r2)
    431c:	e0bffe17 	ldw	r2,-8(fp)
    4320:	10800417 	ldw	r2,16(r2)
    4324:	10c00fcc 	andi	r3,r2,63
    4328:	e0bffe17 	ldw	r2,-8(fp)
    432c:	10c00415 	stw	r3,16(r2)
      /*
       * In case the tranmit interrupt had previously been disabled by 
       * detecting a low value on CTS, it is reenabled here.
       */ 

      sp->ctrl |= ALTERA_AVALON_UART_CONTROL_TRDY_MSK;
    4330:	e0bffe17 	ldw	r2,-8(fp)
    4334:	10800117 	ldw	r2,4(r2)
    4338:	10c01014 	ori	r3,r2,64
    433c:	e0bffe17 	ldw	r2,-8(fp)
    4340:	10c00115 	stw	r3,4(r2)
    /* 
     * If the device is using flow control (i.e. RTS/CTS), then the
     * transmitter is required to throttle if CTS is high.
     */

    if (!(sp->flags & ALT_AVALON_UART_FC) ||
    4344:	00000f06 	br	4384 <altera_avalon_uart_txirq+0x100>
       * the last write to the status register. To avoid this resulting in
       * deadlock, it's necessary to re-check the status register here
       * before throttling.
       */
 
      status = IORD_ALTERA_AVALON_UART_STATUS(sp->base); 
    4348:	e0bffe17 	ldw	r2,-8(fp)
    434c:	10800017 	ldw	r2,0(r2)
    4350:	10800204 	addi	r2,r2,8
    4354:	10800037 	ldwio	r2,0(r2)
    4358:	e0bfff15 	stw	r2,-4(fp)

      if (!(status & ALTERA_AVALON_UART_STATUS_CTS_MSK))
    435c:	e0bfff17 	ldw	r2,-4(fp)
    4360:	1082000c 	andi	r2,r2,2048
    4364:	1004c03a 	cmpne	r2,r2,zero
    4368:	1000061e 	bne	r2,zero,4384 <altera_avalon_uart_txirq+0x100>
      {
        sp->ctrl &= ~ALTERA_AVALON_UART_CONTROL_TRDY_MSK;
    436c:	e0bffe17 	ldw	r2,-8(fp)
    4370:	10c00117 	ldw	r3,4(r2)
    4374:	00bfefc4 	movi	r2,-65
    4378:	1886703a 	and	r3,r3,r2
    437c:	e0bffe17 	ldw	r2,-8(fp)
    4380:	10c00115 	stw	r3,4(r2)
  /*
   * If the circular buffer is empty, disable the interrupt. This will be
   * re-enabled when new data is placed in the buffer.
   */

  if (sp->tx_start == sp->tx_end)
    4384:	e0bffe17 	ldw	r2,-8(fp)
    4388:	10c00417 	ldw	r3,16(r2)
    438c:	e0bffe17 	ldw	r2,-8(fp)
    4390:	10800517 	ldw	r2,20(r2)
    4394:	1880061e 	bne	r3,r2,43b0 <altera_avalon_uart_txirq+0x12c>
  {
    sp->ctrl &= ~(ALTERA_AVALON_UART_CONTROL_TRDY_MSK |
    4398:	e0bffe17 	ldw	r2,-8(fp)
    439c:	10c00117 	ldw	r3,4(r2)
    43a0:	00beefc4 	movi	r2,-1089
    43a4:	1886703a 	and	r3,r3,r2
    43a8:	e0bffe17 	ldw	r2,-8(fp)
    43ac:	10c00115 	stw	r3,4(r2)
                    ALTERA_AVALON_UART_CONTROL_DCTS_MSK);
  }

  IOWR_ALTERA_AVALON_UART_CONTROL(sp->base, sp->ctrl);
    43b0:	e0bffe17 	ldw	r2,-8(fp)
    43b4:	10800017 	ldw	r2,0(r2)
    43b8:	11000304 	addi	r4,r2,12
    43bc:	e0bffe17 	ldw	r2,-8(fp)
    43c0:	10800117 	ldw	r2,4(r2)
    43c4:	1007883a 	mov	r3,r2
    43c8:	2005883a 	mov	r2,r4
    43cc:	10c00035 	stwio	r3,0(r2)
}
    43d0:	e037883a 	mov	sp,fp
    43d4:	df000017 	ldw	fp,0(sp)
    43d8:	dec00104 	addi	sp,sp,4
    43dc:	f800283a 	ret

000043e0 <altera_avalon_uart_close>:
 * The close routine is not implemented for the small driver; instead it will
 * map to null. This is because the small driver simply waits while characters
 * are transmitted; there is no interrupt-serviced buffer to empty 
 */
int altera_avalon_uart_close(altera_avalon_uart_state* sp, int flags)
{
    43e0:	defffc04 	addi	sp,sp,-16
    43e4:	df000315 	stw	fp,12(sp)
    43e8:	df000304 	addi	fp,sp,12
    43ec:	e13ffd15 	stw	r4,-12(fp)
    43f0:	e17ffe15 	stw	r5,-8(fp)
  /* 
   * Wait for all transmit data to be emptied by the UART ISR.
   */
  while (sp->tx_start != sp->tx_end) {
    43f4:	00000706 	br	4414 <altera_avalon_uart_close+0x34>
    if (flags & O_NONBLOCK) {
    43f8:	e0bffe17 	ldw	r2,-8(fp)
    43fc:	1090000c 	andi	r2,r2,16384
    4400:	1005003a 	cmpeq	r2,r2,zero
    4404:	1000031e 	bne	r2,zero,4414 <altera_avalon_uart_close+0x34>
      return -EWOULDBLOCK; 
    4408:	00bffd44 	movi	r2,-11
    440c:	e0bfff15 	stw	r2,-4(fp)
    4410:	00000606 	br	442c <altera_avalon_uart_close+0x4c>
int altera_avalon_uart_close(altera_avalon_uart_state* sp, int flags)
{
  /* 
   * Wait for all transmit data to be emptied by the UART ISR.
   */
  while (sp->tx_start != sp->tx_end) {
    4414:	e0bffd17 	ldw	r2,-12(fp)
    4418:	10c00417 	ldw	r3,16(r2)
    441c:	e0bffd17 	ldw	r2,-12(fp)
    4420:	10800517 	ldw	r2,20(r2)
    4424:	18bff41e 	bne	r3,r2,43f8 <altera_avalon_uart_close+0x18>
    if (flags & O_NONBLOCK) {
      return -EWOULDBLOCK; 
    }
  }

  return 0;
    4428:	e03fff15 	stw	zero,-4(fp)
    442c:	e0bfff17 	ldw	r2,-4(fp)
}
    4430:	e037883a 	mov	sp,fp
    4434:	df000017 	ldw	fp,0(sp)
    4438:	dec00104 	addi	sp,sp,4
    443c:	f800283a 	ret

00004440 <altera_avalon_uart_read>:
 */

int 
altera_avalon_uart_read(altera_avalon_uart_state* sp, char* ptr, int len,
  int flags)
{
    4440:	defff004 	addi	sp,sp,-64
    4444:	dfc00f15 	stw	ra,60(sp)
    4448:	df000e15 	stw	fp,56(sp)
    444c:	df000e04 	addi	fp,sp,56
    4450:	e13ffb15 	stw	r4,-20(fp)
    4454:	e17ffc15 	stw	r5,-16(fp)
    4458:	e1bffd15 	stw	r6,-12(fp)
    445c:	e1fffe15 	stw	r7,-8(fp)
  alt_irq_context context;
  int             block;
  alt_u32         next;
  alt_u8          read_would_block = 0;
    4460:	e03ff705 	stb	zero,-36(fp)
  int             count = 0;
    4464:	e03ff615 	stw	zero,-40(fp)
  /* 
   * Construct a flag to indicate whether the device is being accessed in
   * blocking or non-blocking mode.
   */

  block = !(flags & O_NONBLOCK);
    4468:	e0bffe17 	ldw	r2,-8(fp)
    446c:	1090000c 	andi	r2,r2,16384
    4470:	1005003a 	cmpeq	r2,r2,zero
    4474:	e0bff915 	stw	r2,-28(fp)
  /*
   * Calculate which slot in the circular buffer is the next one to read
   * data from.
   */

  next = (sp->rx_start + 1) & ALT_AVALON_UART_BUF_MSK;
    4478:	e0bffb17 	ldw	r2,-20(fp)
    447c:	10800217 	ldw	r2,8(r2)
    4480:	10800044 	addi	r2,r2,1
    4484:	10800fcc 	andi	r2,r2,63
    4488:	e0bff815 	stw	r2,-32(fp)
    /*
     * Read the required amount of data, until the circular buffer runs
     * empty
     */

    while ((count < len) && (sp->rx_start != sp->rx_end))
    448c:	00001906 	br	44f4 <altera_avalon_uart_read+0xb4>
    {
      count++;
    4490:	e0bff617 	ldw	r2,-40(fp)
    4494:	10800044 	addi	r2,r2,1
    4498:	e0bff615 	stw	r2,-40(fp)
      *ptr++ = sp->rx_buf[sp->rx_start];
    449c:	e0bffb17 	ldw	r2,-20(fp)
    44a0:	10c00217 	ldw	r3,8(r2)
    44a4:	e0bffb17 	ldw	r2,-20(fp)
    44a8:	1885883a 	add	r2,r3,r2
    44ac:	10800704 	addi	r2,r2,28
    44b0:	10800003 	ldbu	r2,0(r2)
    44b4:	1007883a 	mov	r3,r2
    44b8:	e0bffc17 	ldw	r2,-16(fp)
    44bc:	10c00005 	stb	r3,0(r2)
    44c0:	e0bffc17 	ldw	r2,-16(fp)
    44c4:	10800044 	addi	r2,r2,1
    44c8:	e0bffc15 	stw	r2,-16(fp)
      
      sp->rx_start = (++sp->rx_start) & ALT_AVALON_UART_BUF_MSK;
    44cc:	e0bffb17 	ldw	r2,-20(fp)
    44d0:	10800217 	ldw	r2,8(r2)
    44d4:	10c00044 	addi	r3,r2,1
    44d8:	e0bffb17 	ldw	r2,-20(fp)
    44dc:	10c00215 	stw	r3,8(r2)
    44e0:	e0bffb17 	ldw	r2,-20(fp)
    44e4:	10800217 	ldw	r2,8(r2)
    44e8:	10c00fcc 	andi	r3,r2,63
    44ec:	e0bffb17 	ldw	r2,-20(fp)
    44f0:	10c00215 	stw	r3,8(r2)
    /*
     * Read the required amount of data, until the circular buffer runs
     * empty
     */

    while ((count < len) && (sp->rx_start != sp->rx_end))
    44f4:	e0fff617 	ldw	r3,-40(fp)
    44f8:	e0bffd17 	ldw	r2,-12(fp)
    44fc:	1880050e 	bge	r3,r2,4514 <altera_avalon_uart_read+0xd4>
    4500:	e0bffb17 	ldw	r2,-20(fp)
    4504:	10c00217 	ldw	r3,8(r2)
    4508:	e0bffb17 	ldw	r2,-20(fp)
    450c:	10800317 	ldw	r2,12(r2)
    4510:	18bfdf1e 	bne	r3,r2,4490 <altera_avalon_uart_read+0x50>
    /*
     * If no data has been transferred, the circular buffer is empty, and
     * this is not a non-blocking access, block waiting for data to arrive.
     */

    if (!count && (sp->rx_start == sp->rx_end))
    4514:	e0bff617 	ldw	r2,-40(fp)
    4518:	1004c03a 	cmpne	r2,r2,zero
    451c:	1000271e 	bne	r2,zero,45bc <altera_avalon_uart_read+0x17c>
    4520:	e0bffb17 	ldw	r2,-20(fp)
    4524:	10c00217 	ldw	r3,8(r2)
    4528:	e0bffb17 	ldw	r2,-20(fp)
    452c:	10800317 	ldw	r2,12(r2)
    4530:	1880221e 	bne	r3,r2,45bc <altera_avalon_uart_read+0x17c>
    {
      if (!block)
    4534:	e0bff917 	ldw	r2,-28(fp)
    4538:	1004c03a 	cmpne	r2,r2,zero
    453c:	1000061e 	bne	r2,zero,4558 <altera_avalon_uart_read+0x118>
      {
        /* Set errno to indicate the reason we're not returning any data */

        ALT_ERRNO = EWOULDBLOCK;
    4540:	00046700 	call	4670 <alt_get_errno>
    4544:	00c002c4 	movi	r3,11
    4548:	10c00015 	stw	r3,0(r2)
        read_would_block = 1;
    454c:	00800044 	movi	r2,1
    4550:	e0bff705 	stb	r2,-36(fp)
        break;
    4554:	00001f06 	br	45d4 <altera_avalon_uart_read+0x194>
static ALT_INLINE alt_irq_context ALT_ALWAYS_INLINE 
       alt_irq_disable_all (void)
{
  alt_irq_context context;

  NIOS2_READ_STATUS (context);
    4558:	0005303a 	rdctl	r2,status
    455c:	e0bff515 	stw	r2,-44(fp)

  NIOS2_WRITE_STATUS (context & ~NIOS2_STATUS_PIE_MSK);
    4560:	e0fff517 	ldw	r3,-44(fp)
    4564:	00bfff84 	movi	r2,-2
    4568:	1884703a 	and	r2,r3,r2
    456c:	1001703a 	wrctl	status,r2
  
  return context;
    4570:	e0bff517 	ldw	r2,-44(fp)
      {
       /* Block waiting for some data to arrive */

       /* First, ensure read interrupts are enabled to avoid deadlock */

       context = alt_irq_disable_all ();
    4574:	e0bffa15 	stw	r2,-24(fp)
       sp->ctrl |= ALTERA_AVALON_UART_CONTROL_RRDY_MSK;
    4578:	e0bffb17 	ldw	r2,-20(fp)
    457c:	10800117 	ldw	r2,4(r2)
    4580:	10c02014 	ori	r3,r2,128
    4584:	e0bffb17 	ldw	r2,-20(fp)
    4588:	10c00115 	stw	r3,4(r2)
       IOWR_ALTERA_AVALON_UART_CONTROL(sp->base, sp->ctrl);
    458c:	e0bffb17 	ldw	r2,-20(fp)
    4590:	10800017 	ldw	r2,0(r2)
    4594:	11000304 	addi	r4,r2,12
    4598:	e0bffb17 	ldw	r2,-20(fp)
    459c:	10800117 	ldw	r2,4(r2)
    45a0:	1007883a 	mov	r3,r2
    45a4:	2005883a 	mov	r2,r4
    45a8:	10c00035 	stwio	r3,0(r2)
    45ac:	e0bffa17 	ldw	r2,-24(fp)
    45b0:	e0bff415 	stw	r2,-48(fp)
  status &= ~NIOS2_STATUS_PIE_MSK;
  status |= (context & NIOS2_STATUS_PIE_MSK);
  
  NIOS2_WRITE_STATUS (status);
#else
  NIOS2_WRITE_STATUS (context);
    45b4:	e0bff417 	ldw	r2,-48(fp)
    45b8:	1001703a 	wrctl	status,r2
                      OS_FLAG_WAIT_SET_ANY + OS_FLAG_CONSUME,
                      0);
      }
    }
  }
  while (!count && len);
    45bc:	e0bff617 	ldw	r2,-40(fp)
    45c0:	1004c03a 	cmpne	r2,r2,zero
    45c4:	1000031e 	bne	r2,zero,45d4 <altera_avalon_uart_read+0x194>
    45c8:	e0bffd17 	ldw	r2,-12(fp)
    45cc:	1004c03a 	cmpne	r2,r2,zero
    45d0:	103fc81e 	bne	r2,zero,44f4 <altera_avalon_uart_read+0xb4>
static ALT_INLINE alt_irq_context ALT_ALWAYS_INLINE 
       alt_irq_disable_all (void)
{
  alt_irq_context context;

  NIOS2_READ_STATUS (context);
    45d4:	0005303a 	rdctl	r2,status
    45d8:	e0bff315 	stw	r2,-52(fp)

  NIOS2_WRITE_STATUS (context & ~NIOS2_STATUS_PIE_MSK);
    45dc:	e0fff317 	ldw	r3,-52(fp)
    45e0:	00bfff84 	movi	r2,-2
    45e4:	1884703a 	and	r2,r3,r2
    45e8:	1001703a 	wrctl	status,r2
  
  return context;
    45ec:	e0bff317 	ldw	r2,-52(fp)
  /*
   * Ensure that interrupts are enabled, so that the circular buffer can
   * re-fill.
   */

  context = alt_irq_disable_all ();
    45f0:	e0bffa15 	stw	r2,-24(fp)
  sp->ctrl |= ALTERA_AVALON_UART_CONTROL_RRDY_MSK;
    45f4:	e0bffb17 	ldw	r2,-20(fp)
    45f8:	10800117 	ldw	r2,4(r2)
    45fc:	10c02014 	ori	r3,r2,128
    4600:	e0bffb17 	ldw	r2,-20(fp)
    4604:	10c00115 	stw	r3,4(r2)
  IOWR_ALTERA_AVALON_UART_CONTROL(sp->base, sp->ctrl);
    4608:	e0bffb17 	ldw	r2,-20(fp)
    460c:	10800017 	ldw	r2,0(r2)
    4610:	11000304 	addi	r4,r2,12
    4614:	e0bffb17 	ldw	r2,-20(fp)
    4618:	10800117 	ldw	r2,4(r2)
    461c:	1007883a 	mov	r3,r2
    4620:	2005883a 	mov	r2,r4
    4624:	10c00035 	stwio	r3,0(r2)
    4628:	e0bffa17 	ldw	r2,-24(fp)
    462c:	e0bff215 	stw	r2,-56(fp)
  status &= ~NIOS2_STATUS_PIE_MSK;
  status |= (context & NIOS2_STATUS_PIE_MSK);
  
  NIOS2_WRITE_STATUS (status);
#else
  NIOS2_WRITE_STATUS (context);
    4630:	e0bff217 	ldw	r2,-56(fp)
    4634:	1001703a 	wrctl	status,r2
  alt_irq_enable_all (context);

  /* Return the number of bytes read */
  if(read_would_block) {
    4638:	e0bff703 	ldbu	r2,-36(fp)
    463c:	1005003a 	cmpeq	r2,r2,zero
    4640:	1000031e 	bne	r2,zero,4650 <altera_avalon_uart_read+0x210>
    return ~EWOULDBLOCK;
    4644:	00bffd04 	movi	r2,-12
    4648:	e0bfff15 	stw	r2,-4(fp)
    464c:	00000206 	br	4658 <altera_avalon_uart_read+0x218>
  }
  else {
    return count;
    4650:	e0bff617 	ldw	r2,-40(fp)
    4654:	e0bfff15 	stw	r2,-4(fp)
    4658:	e0bfff17 	ldw	r2,-4(fp)
  }
}
    465c:	e037883a 	mov	sp,fp
    4660:	dfc00117 	ldw	ra,4(sp)
    4664:	df000017 	ldw	fp,0(sp)
    4668:	dec00204 	addi	sp,sp,8
    466c:	f800283a 	ret

00004670 <alt_get_errno>:
#undef errno

extern int errno;

static ALT_INLINE int* alt_get_errno(void)
{
    4670:	defffd04 	addi	sp,sp,-12
    4674:	dfc00215 	stw	ra,8(sp)
    4678:	df000115 	stw	fp,4(sp)
    467c:	df000104 	addi	fp,sp,4
  return ((alt_errno) ? alt_errno() : &errno);
    4680:	008002b4 	movhi	r2,10
    4684:	10b8d904 	addi	r2,r2,-7324
    4688:	10800017 	ldw	r2,0(r2)
    468c:	1005003a 	cmpeq	r2,r2,zero
    4690:	1000061e 	bne	r2,zero,46ac <alt_get_errno+0x3c>
    4694:	008002b4 	movhi	r2,10
    4698:	10b8d904 	addi	r2,r2,-7324
    469c:	10800017 	ldw	r2,0(r2)
    46a0:	103ee83a 	callr	r2
    46a4:	e0bfff15 	stw	r2,-4(fp)
    46a8:	00000306 	br	46b8 <alt_get_errno+0x48>
    46ac:	008002b4 	movhi	r2,10
    46b0:	10b8e604 	addi	r2,r2,-7272
    46b4:	e0bfff15 	stw	r2,-4(fp)
    46b8:	e0bfff17 	ldw	r2,-4(fp)
}
    46bc:	e037883a 	mov	sp,fp
    46c0:	dfc00117 	ldw	ra,4(sp)
    46c4:	df000017 	ldw	fp,0(sp)
    46c8:	dec00204 	addi	sp,sp,8
    46cc:	f800283a 	ret

000046d0 <altera_avalon_uart_write>:
 */

int
altera_avalon_uart_write(altera_avalon_uart_state* sp, const char* ptr, int len,
  int flags)
{
    46d0:	defff204 	addi	sp,sp,-56
    46d4:	dfc00d15 	stw	ra,52(sp)
    46d8:	df000c15 	stw	fp,48(sp)
    46dc:	df000c04 	addi	fp,sp,48
    46e0:	e13ffc15 	stw	r4,-16(fp)
    46e4:	e17ffd15 	stw	r5,-12(fp)
    46e8:	e1bffe15 	stw	r6,-8(fp)
    46ec:	e1ffff15 	stw	r7,-4(fp)
  alt_irq_context context;
  int             no_block;
  alt_u32         next;
  int             count = len;
    46f0:	e0bffe17 	ldw	r2,-8(fp)
    46f4:	e0bff815 	stw	r2,-32(fp)
  /* 
   * Construct a flag to indicate whether the device is being accessed in
   * blocking or non-blocking mode.
   */

  no_block = (flags & O_NONBLOCK);
    46f8:	e0bfff17 	ldw	r2,-4(fp)
    46fc:	1090000c 	andi	r2,r2,16384
    4700:	e0bffa15 	stw	r2,-24(fp)
   * Loop transferring data from the input buffer to the transmit circular
   * buffer. The loop is terminated once all the data has been transferred,
   * or, (if in non-blocking mode) the buffer becomes full.
   */

  while (count)
    4704:	00004006 	br	4808 <altera_avalon_uart_write+0x138>
  {
    /* Determine the next slot in the buffer to access */

    next = (sp->tx_end + 1) & ALT_AVALON_UART_BUF_MSK;
    4708:	e0bffc17 	ldw	r2,-16(fp)
    470c:	10800517 	ldw	r2,20(r2)
    4710:	10800044 	addi	r2,r2,1
    4714:	10800fcc 	andi	r2,r2,63
    4718:	e0bff915 	stw	r2,-28(fp)

    /* block waiting for space if necessary */

    if (next == sp->tx_start)
    471c:	e0bffc17 	ldw	r2,-16(fp)
    4720:	10c00417 	ldw	r3,16(r2)
    4724:	e0bff917 	ldw	r2,-28(fp)
    4728:	1880251e 	bne	r3,r2,47c0 <altera_avalon_uart_write+0xf0>
    {
      if (no_block)
    472c:	e0bffa17 	ldw	r2,-24(fp)
    4730:	1005003a 	cmpeq	r2,r2,zero
    4734:	1000051e 	bne	r2,zero,474c <altera_avalon_uart_write+0x7c>
      {
        /* Set errno to indicate why this function returned early */
 
        ALT_ERRNO = EWOULDBLOCK;
    4738:	00048980 	call	4898 <alt_get_errno>
    473c:	1007883a 	mov	r3,r2
    4740:	008002c4 	movi	r2,11
    4744:	18800015 	stw	r2,0(r3)
        break;
    4748:	00003206 	br	4814 <altera_avalon_uart_write+0x144>
static ALT_INLINE alt_irq_context ALT_ALWAYS_INLINE 
       alt_irq_disable_all (void)
{
  alt_irq_context context;

  NIOS2_READ_STATUS (context);
    474c:	0005303a 	rdctl	r2,status
    4750:	e0bff715 	stw	r2,-36(fp)

  NIOS2_WRITE_STATUS (context & ~NIOS2_STATUS_PIE_MSK);
    4754:	e0fff717 	ldw	r3,-36(fp)
    4758:	00bfff84 	movi	r2,-2
    475c:	1884703a 	and	r2,r3,r2
    4760:	1001703a 	wrctl	status,r2
  
  return context;
    4764:	e0bff717 	ldw	r2,-36(fp)
      {
        /* Block waiting for space in the circular buffer */

        /* First, ensure transmit interrupts are enabled to avoid deadlock */

        context = alt_irq_disable_all ();
    4768:	e0bffb15 	stw	r2,-20(fp)
        sp->ctrl |= (ALTERA_AVALON_UART_CONTROL_TRDY_MSK |
    476c:	e0bffc17 	ldw	r2,-16(fp)
    4770:	10800117 	ldw	r2,4(r2)
    4774:	10c11014 	ori	r3,r2,1088
    4778:	e0bffc17 	ldw	r2,-16(fp)
    477c:	10c00115 	stw	r3,4(r2)
                        ALTERA_AVALON_UART_CONTROL_DCTS_MSK);
        IOWR_ALTERA_AVALON_UART_CONTROL(sp->base, sp->ctrl);
    4780:	e0bffc17 	ldw	r2,-16(fp)
    4784:	10800017 	ldw	r2,0(r2)
    4788:	11000304 	addi	r4,r2,12
    478c:	e0bffc17 	ldw	r2,-16(fp)
    4790:	10800117 	ldw	r2,4(r2)
    4794:	1007883a 	mov	r3,r2
    4798:	2005883a 	mov	r2,r4
    479c:	10c00035 	stwio	r3,0(r2)
    47a0:	e0bffb17 	ldw	r2,-20(fp)
    47a4:	e0bff615 	stw	r2,-40(fp)
  status &= ~NIOS2_STATUS_PIE_MSK;
  status |= (context & NIOS2_STATUS_PIE_MSK);
  
  NIOS2_WRITE_STATUS (status);
#else
  NIOS2_WRITE_STATUS (context);
    47a8:	e0bff617 	ldw	r2,-40(fp)
    47ac:	1001703a 	wrctl	status,r2
          ALT_FLAG_PEND (sp->events, 
                         ALT_UART_WRITE_RDY,
                         OS_FLAG_WAIT_SET_ANY + OS_FLAG_CONSUME,
                         0);
        }
        while ((next == sp->tx_start));
    47b0:	e0bffc17 	ldw	r2,-16(fp)
    47b4:	10c00417 	ldw	r3,16(r2)
    47b8:	e0bff917 	ldw	r2,-28(fp)
    47bc:	18bffc26 	beq	r3,r2,47b0 <altera_avalon_uart_write+0xe0>
      }
    }

    count--;
    47c0:	e0bff817 	ldw	r2,-32(fp)
    47c4:	10bfffc4 	addi	r2,r2,-1
    47c8:	e0bff815 	stw	r2,-32(fp)

    /* Add the next character to the transmit buffer */

    sp->tx_buf[sp->tx_end] = *ptr++;
    47cc:	e0bffc17 	ldw	r2,-16(fp)
    47d0:	10c00517 	ldw	r3,20(r2)
    47d4:	e0bffd17 	ldw	r2,-12(fp)
    47d8:	10800003 	ldbu	r2,0(r2)
    47dc:	1009883a 	mov	r4,r2
    47e0:	e0bffc17 	ldw	r2,-16(fp)
    47e4:	1885883a 	add	r2,r3,r2
    47e8:	10801704 	addi	r2,r2,92
    47ec:	11000005 	stb	r4,0(r2)
    47f0:	e0bffd17 	ldw	r2,-12(fp)
    47f4:	10800044 	addi	r2,r2,1
    47f8:	e0bffd15 	stw	r2,-12(fp)
    sp->tx_end = next;
    47fc:	e0fffc17 	ldw	r3,-16(fp)
    4800:	e0bff917 	ldw	r2,-28(fp)
    4804:	18800515 	stw	r2,20(r3)
   * Loop transferring data from the input buffer to the transmit circular
   * buffer. The loop is terminated once all the data has been transferred,
   * or, (if in non-blocking mode) the buffer becomes full.
   */

  while (count)
    4808:	e0bff817 	ldw	r2,-32(fp)
    480c:	1004c03a 	cmpne	r2,r2,zero
    4810:	103fbd1e 	bne	r2,zero,4708 <altera_avalon_uart_write+0x38>
static ALT_INLINE alt_irq_context ALT_ALWAYS_INLINE 
       alt_irq_disable_all (void)
{
  alt_irq_context context;

  NIOS2_READ_STATUS (context);
    4814:	0005303a 	rdctl	r2,status
    4818:	e0bff515 	stw	r2,-44(fp)

  NIOS2_WRITE_STATUS (context & ~NIOS2_STATUS_PIE_MSK);
    481c:	e0fff517 	ldw	r3,-44(fp)
    4820:	00bfff84 	movi	r2,-2
    4824:	1884703a 	and	r2,r3,r2
    4828:	1001703a 	wrctl	status,r2
  
  return context;
    482c:	e0bff517 	ldw	r2,-44(fp)
  /* 
   * Ensure that interrupts are enabled, so that the circular buffer can 
   * drain.
   */

  context = alt_irq_disable_all ();
    4830:	e0bffb15 	stw	r2,-20(fp)
  sp->ctrl |= ALTERA_AVALON_UART_CONTROL_TRDY_MSK |
    4834:	e0bffc17 	ldw	r2,-16(fp)
    4838:	10800117 	ldw	r2,4(r2)
    483c:	10c11014 	ori	r3,r2,1088
    4840:	e0bffc17 	ldw	r2,-16(fp)
    4844:	10c00115 	stw	r3,4(r2)
                 ALTERA_AVALON_UART_CONTROL_DCTS_MSK;
  IOWR_ALTERA_AVALON_UART_CONTROL(sp->base, sp->ctrl);
    4848:	e0bffc17 	ldw	r2,-16(fp)
    484c:	10800017 	ldw	r2,0(r2)
    4850:	11000304 	addi	r4,r2,12
    4854:	e0bffc17 	ldw	r2,-16(fp)
    4858:	10800117 	ldw	r2,4(r2)
    485c:	1007883a 	mov	r3,r2
    4860:	2005883a 	mov	r2,r4
    4864:	10c00035 	stwio	r3,0(r2)
    4868:	e0bffb17 	ldw	r2,-20(fp)
    486c:	e0bff415 	stw	r2,-48(fp)
  status &= ~NIOS2_STATUS_PIE_MSK;
  status |= (context & NIOS2_STATUS_PIE_MSK);
  
  NIOS2_WRITE_STATUS (status);
#else
  NIOS2_WRITE_STATUS (context);
    4870:	e0bff417 	ldw	r2,-48(fp)
    4874:	1001703a 	wrctl	status,r2
  alt_irq_enable_all (context);

  /* return the number of bytes written */

  return (len - count);
    4878:	e0fffe17 	ldw	r3,-8(fp)
    487c:	e0bff817 	ldw	r2,-32(fp)
    4880:	1885c83a 	sub	r2,r3,r2
}
    4884:	e037883a 	mov	sp,fp
    4888:	dfc00117 	ldw	ra,4(sp)
    488c:	df000017 	ldw	fp,0(sp)
    4890:	dec00204 	addi	sp,sp,8
    4894:	f800283a 	ret

00004898 <alt_get_errno>:
#undef errno

extern int errno;

static ALT_INLINE int* alt_get_errno(void)
{
    4898:	defffd04 	addi	sp,sp,-12
    489c:	dfc00215 	stw	ra,8(sp)
    48a0:	df000115 	stw	fp,4(sp)
    48a4:	df000104 	addi	fp,sp,4
  return ((alt_errno) ? alt_errno() : &errno);
    48a8:	008002b4 	movhi	r2,10
    48ac:	10b8d904 	addi	r2,r2,-7324
    48b0:	10800017 	ldw	r2,0(r2)
    48b4:	1005003a 	cmpeq	r2,r2,zero
    48b8:	1000061e 	bne	r2,zero,48d4 <alt_get_errno+0x3c>
    48bc:	008002b4 	movhi	r2,10
    48c0:	10b8d904 	addi	r2,r2,-7324
    48c4:	10800017 	ldw	r2,0(r2)
    48c8:	103ee83a 	callr	r2
    48cc:	e0bfff15 	stw	r2,-4(fp)
    48d0:	00000306 	br	48e0 <alt_get_errno+0x48>
    48d4:	008002b4 	movhi	r2,10
    48d8:	10b8e604 	addi	r2,r2,-7272
    48dc:	e0bfff15 	stw	r2,-4(fp)
    48e0:	e0bfff17 	ldw	r2,-4(fp)
}
    48e4:	e037883a 	mov	sp,fp
    48e8:	dfc00117 	ldw	ra,4(sp)
    48ec:	df000017 	ldw	fp,0(sp)
    48f0:	dec00204 	addi	sp,sp,8
    48f4:	f800283a 	ret

000048f8 <epcs_read_status_register>:
#include "alt_types.h"
#include "epcs_commands.h"
#include "altera_avalon_spi.h"

alt_u8 epcs_read_status_register(alt_u32 base)
{
    48f8:	defff904 	addi	sp,sp,-28
    48fc:	dfc00615 	stw	ra,24(sp)
    4900:	df000515 	stw	fp,20(sp)
    4904:	df000504 	addi	fp,sp,20
    4908:	e13fff15 	stw	r4,-4(fp)
  const alt_u8 rdsr = epcs_rdsr;
    490c:	00800144 	movi	r2,5
    4910:	e0bffe05 	stb	r2,-8(fp)
  alt_u8 status;
  alt_avalon_spi_command(
    4914:	00800044 	movi	r2,1
    4918:	d8800015 	stw	r2,0(sp)
    491c:	e0bffe44 	addi	r2,fp,-7
    4920:	d8800115 	stw	r2,4(sp)
    4924:	d8000215 	stw	zero,8(sp)
    4928:	e13fff17 	ldw	r4,-4(fp)
    492c:	000b883a 	mov	r5,zero
    4930:	01800044 	movi	r6,1
    4934:	e1fffe04 	addi	r7,fp,-8
    4938:	0005b4c0 	call	5b4c <alt_avalon_spi_command>
    1,
    &status,
    0
  );

  return status;
    493c:	e0bffe43 	ldbu	r2,-7(fp)
    4940:	10803fcc 	andi	r2,r2,255
}
    4944:	e037883a 	mov	sp,fp
    4948:	dfc00117 	ldw	ra,4(sp)
    494c:	df000017 	ldw	fp,0(sp)
    4950:	dec00204 	addi	sp,sp,8
    4954:	f800283a 	ret

00004958 <epcs_sector_erase>:
  {
  }
}

void epcs_sector_erase(alt_u32 base, alt_u32 offset, alt_u32 four_bytes_mode)
{
    4958:	defff504 	addi	sp,sp,-44
    495c:	dfc00a15 	stw	ra,40(sp)
    4960:	df000915 	stw	fp,36(sp)
    4964:	df000904 	addi	fp,sp,36
    4968:	e13ffd15 	stw	r4,-12(fp)
    496c:	e17ffe15 	stw	r5,-8(fp)
    4970:	e1bfff15 	stw	r6,-4(fp)
  alt_u8 se[5];
  alt_u8 len;
  
  if(four_bytes_mode)
    4974:	e0bfff17 	ldw	r2,-4(fp)
    4978:	1005003a 	cmpeq	r2,r2,zero
    497c:	1000121e 	bne	r2,zero,49c8 <epcs_sector_erase+0x70>
  {
      se[0] = epcs_se;  /* Note: Use epcs_se for Micron EPCS256 */
    4980:	00bff604 	movi	r2,-40
    4984:	e0bffb05 	stb	r2,-20(fp)
      se[1] = (offset >> 24) & 0xFF;
    4988:	e0bffe17 	ldw	r2,-8(fp)
    498c:	1004d63a 	srli	r2,r2,24
    4990:	e0bffb45 	stb	r2,-19(fp)
      se[2] = (offset >> 16) & 0xFF;
    4994:	e0bffe17 	ldw	r2,-8(fp)
    4998:	1004d43a 	srli	r2,r2,16
    499c:	e0bffb85 	stb	r2,-18(fp)
      se[3] = (offset >> 8) & 0xFF;
    49a0:	e0bffe17 	ldw	r2,-8(fp)
    49a4:	1004d23a 	srli	r2,r2,8
    49a8:	e0bffbc5 	stb	r2,-17(fp)
      se[4] = offset & 0xFF;
    49ac:	e0bffe17 	ldw	r2,-8(fp)
    49b0:	e0bffc05 	stb	r2,-16(fp)
      len   = 5;
    49b4:	00800144 	movi	r2,5
    49b8:	e0bffa05 	stb	r2,-24(fp)
      epcs_enter_4_bytes_mode(base);
    49bc:	e13ffd17 	ldw	r4,-12(fp)
    49c0:	0004f1c0 	call	4f1c <epcs_enter_4_bytes_mode>
    49c4:	00000c06 	br	49f8 <epcs_sector_erase+0xa0>
  }
  else
  {
      se[0] = epcs_se;
    49c8:	00bff604 	movi	r2,-40
    49cc:	e0bffb05 	stb	r2,-20(fp)
      se[1] = (offset >> 16) & 0xFF;
    49d0:	e0bffe17 	ldw	r2,-8(fp)
    49d4:	1004d43a 	srli	r2,r2,16
    49d8:	e0bffb45 	stb	r2,-19(fp)
      se[2] = (offset >> 8) & 0xFF;
    49dc:	e0bffe17 	ldw	r2,-8(fp)
    49e0:	1004d23a 	srli	r2,r2,8
    49e4:	e0bffb85 	stb	r2,-18(fp)
      se[3] = offset & 0xFF;
    49e8:	e0bffe17 	ldw	r2,-8(fp)
    49ec:	e0bffbc5 	stb	r2,-17(fp)
      len   = 4;
    49f0:	00800104 	movi	r2,4
    49f4:	e0bffa05 	stb	r2,-24(fp)
  }

  /* Execute a WREN instruction */
  epcs_write_enable(base);
    49f8:	e13ffd17 	ldw	r4,-12(fp)
    49fc:	0004c0c0 	call	4c0c <epcs_write_enable>

  alt_avalon_spi_command(
    4a00:	e1bffa03 	ldbu	r6,-24(fp)
    4a04:	e1fffb04 	addi	r7,fp,-20
    4a08:	d8000015 	stw	zero,0(sp)
    4a0c:	d8000115 	stw	zero,4(sp)
    4a10:	d8000215 	stw	zero,8(sp)
    4a14:	e13ffd17 	ldw	r4,-12(fp)
    4a18:	000b883a 	mov	r5,zero
    4a1c:	0005b4c0 	call	5b4c <alt_avalon_spi_command>
    0,
    (alt_u8*)0,
    0
  );

  epcs_await_wip_released(base);
    4a20:	e13ffd17 	ldw	r4,-12(fp)
    4a24:	0004a500 	call	4a50 <epcs_await_wip_released>

  if(four_bytes_mode)
    4a28:	e0bfff17 	ldw	r2,-4(fp)
    4a2c:	1005003a 	cmpeq	r2,r2,zero
    4a30:	1000021e 	bne	r2,zero,4a3c <epcs_sector_erase+0xe4>
  {
    epcs_exit_4_bytes_mode(base);
    4a34:	e13ffd17 	ldw	r4,-12(fp)
    4a38:	0004f740 	call	4f74 <epcs_exit_4_bytes_mode>
  }
}
    4a3c:	e037883a 	mov	sp,fp
    4a40:	dfc00117 	ldw	ra,4(sp)
    4a44:	df000017 	ldw	fp,0(sp)
    4a48:	dec00204 	addi	sp,sp,8
    4a4c:	f800283a 	ret

00004a50 <epcs_await_wip_released>:
{
  return epcs_read_status_register(base) & 1;
}

static ALT_INLINE void epcs_await_wip_released(alt_u32 base)
{
    4a50:	defffd04 	addi	sp,sp,-12
    4a54:	dfc00215 	stw	ra,8(sp)
    4a58:	df000115 	stw	fp,4(sp)
    4a5c:	df000104 	addi	fp,sp,4
    4a60:	e13fff15 	stw	r4,-4(fp)
  /* Wait until the WIP bit goes low. */
  while (epcs_test_wip(base))
    4a64:	e13fff17 	ldw	r4,-4(fp)
    4a68:	0004a880 	call	4a88 <epcs_test_wip>
    4a6c:	1004c03a 	cmpne	r2,r2,zero
    4a70:	103ffc1e 	bne	r2,zero,4a64 <epcs_await_wip_released+0x14>
  {
  }
}
    4a74:	e037883a 	mov	sp,fp
    4a78:	dfc00117 	ldw	ra,4(sp)
    4a7c:	df000017 	ldw	fp,0(sp)
    4a80:	dec00204 	addi	sp,sp,8
    4a84:	f800283a 	ret

00004a88 <epcs_test_wip>:

  return status;
}

static ALT_INLINE int epcs_test_wip(alt_u32 base)
{
    4a88:	defffd04 	addi	sp,sp,-12
    4a8c:	dfc00215 	stw	ra,8(sp)
    4a90:	df000115 	stw	fp,4(sp)
    4a94:	df000104 	addi	fp,sp,4
    4a98:	e13fff15 	stw	r4,-4(fp)
  return epcs_read_status_register(base) & 1;
    4a9c:	e13fff17 	ldw	r4,-4(fp)
    4aa0:	00048f80 	call	48f8 <epcs_read_status_register>
    4aa4:	10803fcc 	andi	r2,r2,255
    4aa8:	1080004c 	andi	r2,r2,1
}
    4aac:	e037883a 	mov	sp,fp
    4ab0:	dfc00117 	ldw	ra,4(sp)
    4ab4:	df000017 	ldw	fp,0(sp)
    4ab8:	dec00204 	addi	sp,sp,8
    4abc:	f800283a 	ret

00004ac0 <epcs_read_buffer>:
  }
}

alt_32 epcs_read_buffer(alt_u32 base, int offset, alt_u8 *dest_addr, int length,
                        alt_u32 four_bytes_mode)
{
    4ac0:	defff404 	addi	sp,sp,-48
    4ac4:	dfc00b15 	stw	ra,44(sp)
    4ac8:	df000a15 	stw	fp,40(sp)
    4acc:	df000a04 	addi	fp,sp,40
    4ad0:	e13ffc15 	stw	r4,-16(fp)
    4ad4:	e17ffd15 	stw	r5,-12(fp)
    4ad8:	e1bffe15 	stw	r6,-8(fp)
    4adc:	e1ffff15 	stw	r7,-4(fp)
  alt_u8 read_command[5];
  alt_u32 cmd_len;

  read_command[0] = epcs_read;
    4ae0:	008000c4 	movi	r2,3
    4ae4:	e0bffa05 	stb	r2,-24(fp)
  
  if(four_bytes_mode)
    4ae8:	e0800217 	ldw	r2,8(fp)
    4aec:	1005003a 	cmpeq	r2,r2,zero
    4af0:	10001c1e 	bne	r2,zero,4b64 <epcs_read_buffer+0xa4>
  {
        read_command[1] = (offset >> 24) & 0xFF;
    4af4:	e0bffd17 	ldw	r2,-12(fp)
    4af8:	1005d63a 	srai	r2,r2,24
    4afc:	1007883a 	mov	r3,r2
    4b00:	00bfffc4 	movi	r2,-1
    4b04:	1884703a 	and	r2,r3,r2
    4b08:	e0bffa45 	stb	r2,-23(fp)
        read_command[2] = (offset >> 16) & 0xFF;
    4b0c:	e0bffd17 	ldw	r2,-12(fp)
    4b10:	1005d43a 	srai	r2,r2,16
    4b14:	1007883a 	mov	r3,r2
    4b18:	00bfffc4 	movi	r2,-1
    4b1c:	1884703a 	and	r2,r3,r2
    4b20:	e0bffa85 	stb	r2,-22(fp)
        read_command[3] = (offset >> 8) & 0xFF;
    4b24:	e0bffd17 	ldw	r2,-12(fp)
    4b28:	1005d23a 	srai	r2,r2,8
    4b2c:	1007883a 	mov	r3,r2
    4b30:	00bfffc4 	movi	r2,-1
    4b34:	1884703a 	and	r2,r3,r2
    4b38:	e0bffac5 	stb	r2,-21(fp)
        read_command[4] = offset & 0xFF;
